

Microchip Technology PIC18 LITE Macro Assembler V1.35 build -356382666 
                                                                                               Tue Jan 12 11:25:17 2016

Microchip Technology Omniscient Code Generator v1.35 (Free mode) build 201507080246
     1                           	processor	18F46K22
     2                           	fnconf	rparam,??,?,0
     3                           	opt	pw 120
     4                           	opt	lm
     5                           	psect	cinit,global,reloc=2,class=CODE,delta=1
     6                           	psect	bitbssCOMRAM,global,bit,class=COMRAM,space=1,delta=1
     7                           	psect	bssCOMRAM,global,class=COMRAM,space=1,delta=1
     8                           	psect	bssBANK0,global,class=BANK0,space=1,delta=1
     9                           	psect	cstackCOMRAM,global,class=COMRAM,space=1,delta=1
    10                           	psect	text0,global,reloc=2,class=CODE,delta=1
    11                           	psect	text1,global,reloc=2,class=CODE,delta=1
    12                           	psect	text2,global,reloc=2,class=CODE,delta=1
    13                           	psect	text3,global,reloc=2,class=CODE,delta=1
    14                           	psect	text4,global,reloc=2,class=CODE,delta=1
    15                           	psect	text5,global,reloc=2,class=CODE,delta=1
    16                           	psect	text6,global,reloc=2,class=CODE,delta=1
    17                           	psect	text7,global,reloc=2,class=CODE,delta=1
    18                           	psect	text8,global,reloc=2,class=CODE,delta=1
    19                           	psect	text9,global,reloc=2,class=CODE,delta=1
    20                           	psect	text10,global,reloc=2,class=CODE,delta=1
    21                           	psect	intcode,global,reloc=2,class=CODE,delta=1
    22                           	psect	text12,global,reloc=2,class=CODE,delta=1
    23                           	psect	text13,global,reloc=2,class=CODE,delta=1
    24                           	psect	text14,global,reloc=2,class=CODE,delta=1
    25                           	psect	text15,global,reloc=2,class=CODE,delta=1
    26                           	psect	text16,global,reloc=2,class=CODE,delta=1
    27                           	psect	text17,global,reloc=2,class=CODE,delta=1
    28                           	psect	intsave_regs,global,class=BIGRAM,space=1,delta=1
    29                           	psect	rparam,global,class=COMRAM,space=1,delta=1
    30                           	psect	temp,global,ovrld,common,class=COMRAM,space=1,delta=1
    31  0000                     _ANSELA	set	3896
    32  0000                     _ANSELB	set	3897
    33  0000                     _ANSELC	set	3898
    34  0000                     _ANSELD	set	3899
    35  0000                     _ANSELE	set	3900
    36  0000                     _T5CONbits	set	3918
    37  0000                     _T5GCONbits	set	3917
    38  0000                     _BAUDCON1bits	set	4024
    39  0000                     _OSCCON	set	4051
    40  0000                     _PORTA	set	3968
    41  0000                     _PORTB	set	3969
    42  0000                     _PORTBbits	set	3969
    43  0000                     _PORTC	set	3970
    44  0000                     _PORTD	set	3971
    45  0000                     _PORTDbits	set	3971
    46  0000                     _PORTE	set	3972
    47  0000                     _RCREG1	set	4014
    48  0000                     _RCSTA1bits	set	4011
    49  0000                     _SPBRG1	set	4015
    50  0000                     _SSP1CON1	set	4038
    51  0000                     _SSP1STAT	set	4039
    52  0000                     _T3CONbits	set	4017
    53  0000                     _T3GCONbits	set	4020
    54  0000                     _TRISA	set	3986
    55  0000                     _TRISB	set	3987
    56  0000                     _TRISC	set	3988
    57  0000                     _TRISD	set	3989
    58  0000                     _TRISE	set	3990
    59  0000                     _TXREG1	set	4013
    60  0000                     _TXSTA1bits	set	4012
    61  0000                     _GIE	set	32663
    62  0000                     _PEIE	set	32662
    63  0000                     _RC1IE	set	31981
    64  0000                     _RC1IF	set	31989
    65  0000                     _TMR3GIE	set	32025
    66  0000                     _TX1IF	set	31988
    67                           
    68                           ; #config settings
    69  0000                     
    70                           	psect	cinit
    71  0001F8                     __pcinit:
    72                           	opt stack 0
    73  0001F8                     start_initialization:
    74                           	opt stack 0
    75  0001F8                     __initialization:
    76                           	opt stack 0
    77                           
    78                           ; Clear objects allocated to BANK0 (42 bytes)
    79  0001F8  EE00  F060         	lfsr	0,__pbssBANK0
    80  0001FC  0E2A               	movlw	42
    81  0001FE                     clear_0:
    82  0001FE  6AEE               	clrf	postinc0,c
    83  000200  06E8               	decf	wreg,f,c
    84  000202  E1FD               	bnz	clear_0
    85                           
    86                           ; Clear objects allocated to BITCOMRAM (1 bytes)
    87  000204  6A36               	clrf	(__pbitbssCOMRAM/(0+8))& (0+255),c
    88                           
    89                           ; Clear objects allocated to COMRAM (37 bytes)
    90  000206  EE00  F001         	lfsr	0,__pbssCOMRAM
    91  00020A  0E25               	movlw	37
    92  00020C                     clear_1:
    93  00020C  6AEE               	clrf	postinc0,c
    94  00020E  06E8               	decf	wreg,f,c
    95  000210  E1FD               	bnz	clear_1
    96  000212                     end_of_initialization:
    97                           	opt stack 0
    98  000212                     __end_of__initialization:
    99                           	opt stack 0
   100  000212  9037               	bcf	int$flags,0,c	;clear compiler interrupt flag (level 1)
   101  000214  9237               	bcf	int$flags,1,c	;clear compiler interrupt flag (level 2)
   102  000216  0100               	movlb	0
   103  000218  EF2C  F001         	goto	_main	;jump to C main() function
   104                           postinc0	equ	0xFEE
   105                           wreg	equ	0xFE8
   106                           
   107                           	psect	bitbssCOMRAM
   108  0001B0                     __pbitbssCOMRAM:
   109                           	opt stack 0
   110  0001B0                     _path_name:
   111                           	opt stack 0
   112  0001B0                     	ds	1
   113  0001B1                     _receiving_ok:
   114                           	opt stack 0
   115  0001B1                     	ds	1
   116                           postinc0	equ	0xFEE
   117                           wreg	equ	0xFE8
   118                           
   119                           	psect	bssCOMRAM
   120  000001                     __pbssCOMRAM:
   121                           	opt stack 0
   122  000001                     _a_name:
   123                           	opt stack 0
   124  000001                     	ds	32
   125  000021                     _c_name:
   126                           	opt stack 0
   127  000021                     	ds	1
   128  000022                     _c_path:
   129                           	opt stack 0
   130  000022                     	ds	1
   131  000023                     _numb_cc:
   132                           	opt stack 0
   133  000023                     	ds	1
   134  000024                     _numb_cc_table:
   135                           	opt stack 0
   136  000024                     	ds	1
   137  000025                     _received:
   138                           	opt stack 0
   139  000025                     	ds	1
   140                           postinc0	equ	0xFEE
   141                           wreg	equ	0xFE8
   142                           
   143                           	psect	bssBANK0
   144  000060                     __pbssBANK0:
   145                           	opt stack 0
   146  000060                     _a_path:
   147                           	opt stack 0
   148  000060                     	ds	42
   149                           postinc0	equ	0xFEE
   150                           wreg	equ	0xFE8
   151                           
   152                           	psect	cstackCOMRAM
   153  000026                     __pcstackCOMRAM:
   154                           	opt stack 0
   155  000026                     UartSend@data:
   156                           	opt stack 0
   157  000026                     UartDump@dumpdata:
   158                           	opt stack 0
   159                           
   160                           ; 1 bytes @ 0x0
   161  000026                     	ds	1
   162  000027                     ??_isr:
   163                           
   164                           ; 0 bytes @ 0x1
   165  000027                     	ds	14
   166  000035                     ??_InitWlan:
   167                           
   168                           ; 0 bytes @ 0xF
   169  000035                     	ds	1
   170  000036                     postinc0	equ	0xFEE
   171                           wreg	equ	0xFE8
   172                           
   173                           ; 0 bytes @ 0x10
   174 ;;
   175 ;;Main: autosize = 0, tempsize = 0, incstack = 0, save=0
   176 ;;
   177 ;; *************** function _main *****************
   178 ;; Defined at:
   179 ;;		line 96 in file "main.c"
   180 ;; Parameters:    Size  Location     Type
   181 ;;		None
   182 ;; Auto vars:     Size  Location     Type
   183 ;;		None
   184 ;; Return value:  Size  Location     Type
   185 ;;		None               void
   186 ;; Registers used:
   187 ;;		wreg, status,2, cstack
   188 ;; Tracked objects:
   189 ;;		On entry : 0/0
   190 ;;		On exit  : 0/0
   191 ;;		Unchanged: 0/0
   192 ;; Data sizes:     COMRAM   BANK0   BANK1   BANK2   BANK3   BANK4   BANK5   BANK6   BANK7   BANK8   BANK9  BANK10  BANK1
      +1  BANK12  BANK13  BANK14  BANK15
   193 ;;      Params:         0       0       0       0       0       0       0       0       0       0       0       0       
      +0       0       0       0       0
   194 ;;      Locals:         0       0       0       0       0       0       0       0       0       0       0       0       
      +0       0       0       0       0
   195 ;;      Temps:          0       0       0       0       0       0       0       0       0       0       0       0       
      +0       0       0       0       0
   196 ;;      Totals:         0       0       0       0       0       0       0       0       0       0       0       0       
      +0       0       0       0       0
   197 ;;Total ram usage:        0 bytes
   198 ;; Hardware stack levels required when called:    6
   199 ;; This function calls:
   200 ;;		_Init
   201 ;;		_InitWlan
   202 ;; This function is called by:
   203 ;;		Startup code after reset
   204 ;; This function uses a non-reentrant model
   205 ;;
   206                           
   207                           	psect	text0
   208  000258                     __ptext0:
   209                           	opt stack 0
   210  000258                     _main:
   211                           	opt stack 25
   212                           
   213                           ;main.c: 97: Init();
   214                           
   215                           ;incstack = 0
   216  000258  ECE9  F000         	call	_Init	;wreg free
   217  00025C                     l1041:
   218                           
   219                           ;main.c: 99: __nop();
   220  00025C  F000               	nop	
   221                           
   222                           ;main.c: 100: PORTBbits.RB2 = PORTDbits.RD4;
   223  00025E  A883               	btfss	3971,4,c	;volatile
   224  000260  D002               	bra	u205
   225  000262  8481               	bsf	3969,2,c	;volatile
   226  000264  D001               	bra	u207
   227  000266                     u205:
   228  000266  9481               	bcf	3969,2,c	;volatile
   229  000268                     u207:
   230                           
   231                           ;main.c: 101: if(PORTDbits.RD4 == 0) {
   232  000268  B883               	btfsc	3971,4,c	;volatile
   233  00026A  D7F8               	goto	l1041
   234                           
   235                           ;main.c: 102: InitWlan();
   236  00026C  EC1E  F001         	call	_InitWlan	;wreg free
   237  000270  D7F5               	goto	l1041
   238  000272                     __end_of_main:
   239                           	opt stack 0
   240                           postinc0	equ	0xFEE
   241                           wreg	equ	0xFE8
   242                           
   243 ;; *************** function _Init *****************
   244 ;; Defined at:
   245 ;;		line 30 in file "init.c"
   246 ;; Parameters:    Size  Location     Type
   247 ;;		None
   248 ;; Auto vars:     Size  Location     Type
   249 ;;		None
   250 ;; Return value:  Size  Location     Type
   251 ;;		None               void
   252 ;; Registers used:
   253 ;;		wreg, status,2, cstack
   254 ;; Tracked objects:
   255 ;;		On entry : 0/0
   256 ;;		On exit  : 0/0
   257 ;;		Unchanged: 0/0
   258 ;; Data sizes:     COMRAM   BANK0   BANK1   BANK2   BANK3   BANK4   BANK5   BANK6   BANK7   BANK8   BANK9  BANK10  BANK1
      +1  BANK12  BANK13  BANK14  BANK15
   259 ;;      Params:         0       0       0       0       0       0       0       0       0       0       0       0       
      +0       0       0       0       0
   260 ;;      Locals:         0       0       0       0       0       0       0       0       0       0       0       0       
      +0       0       0       0       0
   261 ;;      Temps:          0       0       0       0       0       0       0       0       0       0       0       0       
      +0       0       0       0       0
   262 ;;      Totals:         0       0       0       0       0       0       0       0       0       0       0       0       
      +0       0       0       0       0
   263 ;;Total ram usage:        0 bytes
   264 ;; Hardware stack levels used:    1
   265 ;; Hardware stack levels required when called:    5
   266 ;; This function calls:
   267 ;;		_InitAnsel
   268 ;;		_InitInterrupt
   269 ;;		_InitOsc
   270 ;;		_InitPort
   271 ;;		_InitSpi
   272 ;;		_InitTimer
   273 ;;		_InitTris
   274 ;;		_InitUart
   275 ;;		_InitWlan
   276 ;; This function is called by:
   277 ;;		_main
   278 ;; This function uses a non-reentrant model
   279 ;;
   280                           
   281                           	psect	text1
   282  0001D2                     __ptext1:
   283                           	opt stack 0
   284  0001D2                     _Init:
   285                           	opt stack 25
   286                           
   287                           ;init.c: 31: InitPort();
   288                           
   289                           ;incstack = 0
   290  0001D2  EC5B  F001         	call	_InitPort	;wreg free
   291                           
   292                           ;init.c: 32: InitTris();
   293  0001D6  EC50  F001         	call	_InitTris	;wreg free
   294                           
   295                           ;init.c: 33: InitAnsel();
   296  0001DA  EC0E  F001         	call	_InitAnsel	;wreg free
   297                           
   298                           ;init.c: 34: InitOsc();
   299  0001DE  EC81  F001         	call	_InitOsc	;wreg free
   300                           
   301                           ;init.c: 35: InitUart();
   302  0001E2  EC45  F001         	call	_InitUart	;wreg free
   303                           
   304                           ;init.c: 36: InitSpi();
   305  0001E6  EC6C  F001         	call	_InitSpi	;wreg free
   306                           
   307                           ;init.c: 37: InitTimer();
   308  0001EA  ECC7  F000         	call	_InitTimer	;wreg free
   309                           
   310                           ;init.c: 38: InitInterrupt();
   311  0001EE  EC71  F001         	call	_InitInterrupt	;wreg free
   312                           
   313                           ;init.c: 39: InitWlan();
   314  0001F2  EC1E  F001         	call	_InitWlan	;wreg free
   315  0001F6  0012               	return		;funcret
   316  0001F8                     __end_of_Init:
   317                           	opt stack 0
   318                           postinc0	equ	0xFEE
   319                           wreg	equ	0xFE8
   320                           
   321 ;; *************** function _InitWlan *****************
   322 ;; Defined at:
   323 ;;		line 184 in file "init.c"
   324 ;; Parameters:    Size  Location     Type
   325 ;;		None
   326 ;; Auto vars:     Size  Location     Type
   327 ;;		None
   328 ;; Return value:  Size  Location     Type
   329 ;;		None               void
   330 ;; Registers used:
   331 ;;		wreg
   332 ;; Tracked objects:
   333 ;;		On entry : 0/0
   334 ;;		On exit  : 0/0
   335 ;;		Unchanged: 0/0
   336 ;; Data sizes:     COMRAM   BANK0   BANK1   BANK2   BANK3   BANK4   BANK5   BANK6   BANK7   BANK8   BANK9  BANK10  BANK1
      +1  BANK12  BANK13  BANK14  BANK15
   337 ;;      Params:         0       0       0       0       0       0       0       0       0       0       0       0       
      +0       0       0       0       0
   338 ;;      Locals:         0       0       0       0       0       0       0       0       0       0       0       0       
      +0       0       0       0       0
   339 ;;      Temps:          1       0       0       0       0       0       0       0       0       0       0       0       
      +0       0       0       0       0
   340 ;;      Totals:         1       0       0       0       0       0       0       0       0       0       0       0       
      +0       0       0       0       0
   341 ;;Total ram usage:        1 bytes
   342 ;; Hardware stack levels used:    1
   343 ;; Hardware stack levels required when called:    4
   344 ;; This function calls:
   345 ;;		Nothing
   346 ;; This function is called by:
   347 ;;		_Init
   348 ;;		_main
   349 ;; This function uses a non-reentrant model
   350 ;;
   351                           
   352                           	psect	text2
   353  00023C                     __ptext2:
   354                           	opt stack 0
   355  00023C                     _InitWlan:
   356                           	opt stack 26
   357  00023C                     l132:
   358  00023C  AC83               	btfss	3971,6,c	;volatile
   359  00023E  D7FE               	goto	l132
   360                           
   361                           ;init.c: 186: PORTDbits.RD5 = 1;
   362  000240  8A83               	bsf	3971,5,c	;volatile
   363                           
   364                           ;init.c: 187: _delay((unsigned long)((30)*(16000000/4000.0)));
   365  000242  0E9C               	movlw	156
   366  000244  6E35               	movwf	??_InitWlan& (0+255),c
   367  000246  0ED7               	movlw	215
   368  000248                     u397:
   369  000248  2EE8               	decfsz	wreg,f,c
   370  00024A  D7FE               	goto	u397
   371  00024C  2E35               	decfsz	??_InitWlan& (0+255),f,c
   372  00024E  D7FC               	goto	u397
   373  000250  F000               	nop	
   374  000252                     l135:
   375  000252  B883               	btfsc	3971,4,c	;volatile
   376  000254  0012               	return	
   377  000256  D7FD               	goto	l135
   378  000258                     __end_of_InitWlan:
   379                           	opt stack 0
   380                           postinc0	equ	0xFEE
   381                           wreg	equ	0xFE8
   382                           
   383 ;; *************** function _InitUart *****************
   384 ;; Defined at:
   385 ;;		line 86 in file "init.c"
   386 ;; Parameters:    Size  Location     Type
   387 ;;		None
   388 ;; Auto vars:     Size  Location     Type
   389 ;;		None
   390 ;; Return value:  Size  Location     Type
   391 ;;		None               void
   392 ;; Registers used:
   393 ;;		wreg, status,2
   394 ;; Tracked objects:
   395 ;;		On entry : 0/0
   396 ;;		On exit  : 0/0
   397 ;;		Unchanged: 0/0
   398 ;; Data sizes:     COMRAM   BANK0   BANK1   BANK2   BANK3   BANK4   BANK5   BANK6   BANK7   BANK8   BANK9  BANK10  BANK1
      +1  BANK12  BANK13  BANK14  BANK15
   399 ;;      Params:         0       0       0       0       0       0       0       0       0       0       0       0       
      +0       0       0       0       0
   400 ;;      Locals:         0       0       0       0       0       0       0       0       0       0       0       0       
      +0       0       0       0       0
   401 ;;      Temps:          0       0       0       0       0       0       0       0       0       0       0       0       
      +0       0       0       0       0
   402 ;;      Totals:         0       0       0       0       0       0       0       0       0       0       0       0       
      +0       0       0       0       0
   403 ;;Total ram usage:        0 bytes
   404 ;; Hardware stack levels used:    1
   405 ;; Hardware stack levels required when called:    4
   406 ;; This function calls:
   407 ;;		Nothing
   408 ;; This function is called by:
   409 ;;		_Init
   410 ;; This function uses a non-reentrant model
   411 ;;
   412                           
   413                           	psect	text3
   414  00028A                     __ptext3:
   415                           	opt stack 0
   416  00028A                     _InitUart:
   417                           	opt stack 25
   418                           
   419                           ;init.c: 88: SPBRG1 = 68;
   420                           
   421                           ;incstack = 0
   422  00028A  0E44               	movlw	68
   423  00028C  6EAF               	movwf	4015,c	;volatile
   424                           
   425                           ;init.c: 89: TXSTA1bits.BRGH = 1;
   426  00028E  84AC               	bsf	4012,2,c	;volatile
   427                           
   428                           ;init.c: 90: BAUDCON1bits.BRG16 = 1;
   429  000290  86B8               	bsf	4024,3,c	;volatile
   430                           
   431                           ;init.c: 93: TXSTA1bits.SYNC = 0;
   432  000292  98AC               	bcf	4012,4,c	;volatile
   433                           
   434                           ;init.c: 94: RCSTA1bits.SPEN = 1;
   435  000294  8EAB               	bsf	4011,7,c	;volatile
   436                           
   437                           ;init.c: 96: TXSTA1bits.TXEN = 1;
   438  000296  8AAC               	bsf	4012,5,c	;volatile
   439                           
   440                           ;init.c: 97: TX1IF = 0;
   441  000298  989E               	bcf	3998,4,c	;volatile
   442                           
   443                           ;init.c: 99: RCSTA1bits.CREN = 1;
   444  00029A  88AB               	bsf	4011,4,c	;volatile
   445                           
   446                           ;init.c: 100: RC1IE = 1;
   447  00029C  8A9D               	bsf	3997,5,c	;volatile
   448  00029E  0012               	return		;funcret
   449  0002A0                     __end_of_InitUart:
   450                           	opt stack 0
   451                           postinc0	equ	0xFEE
   452                           wreg	equ	0xFE8
   453                           
   454 ;; *************** function _InitTris *****************
   455 ;; Defined at:
   456 ;;		line 54 in file "init.c"
   457 ;; Parameters:    Size  Location     Type
   458 ;;		None
   459 ;; Auto vars:     Size  Location     Type
   460 ;;		None
   461 ;; Return value:  Size  Location     Type
   462 ;;		None               void
   463 ;; Registers used:
   464 ;;		wreg, status,2
   465 ;; Tracked objects:
   466 ;;		On entry : 0/0
   467 ;;		On exit  : 0/0
   468 ;;		Unchanged: 0/0
   469 ;; Data sizes:     COMRAM   BANK0   BANK1   BANK2   BANK3   BANK4   BANK5   BANK6   BANK7   BANK8   BANK9  BANK10  BANK1
      +1  BANK12  BANK13  BANK14  BANK15
   470 ;;      Params:         0       0       0       0       0       0       0       0       0       0       0       0       
      +0       0       0       0       0
   471 ;;      Locals:         0       0       0       0       0       0       0       0       0       0       0       0       
      +0       0       0       0       0
   472 ;;      Temps:          0       0       0       0       0       0       0       0       0       0       0       0       
      +0       0       0       0       0
   473 ;;      Totals:         0       0       0       0       0       0       0       0       0       0       0       0       
      +0       0       0       0       0
   474 ;;Total ram usage:        0 bytes
   475 ;; Hardware stack levels used:    1
   476 ;; Hardware stack levels required when called:    4
   477 ;; This function calls:
   478 ;;		Nothing
   479 ;; This function is called by:
   480 ;;		_Init
   481 ;; This function uses a non-reentrant model
   482 ;;
   483                           
   484                           	psect	text4
   485  0002A0                     __ptext4:
   486                           	opt stack 0
   487  0002A0                     _InitTris:
   488                           	opt stack 25
   489                           
   490                           ;init.c: 55: TRISA = 0b00000000;
   491                           
   492                           ;incstack = 0
   493  0002A0  0E00               	movlw	0
   494  0002A2  6E92               	movwf	3986,c	;volatile
   495                           
   496                           ;init.c: 56: TRISB = 0b00010000;
   497  0002A4  0E10               	movlw	16
   498  0002A6  6E93               	movwf	3987,c	;volatile
   499                           
   500                           ;init.c: 57: TRISC = 0b10010001;
   501  0002A8  0E91               	movlw	145
   502  0002AA  6E94               	movwf	3988,c	;volatile
   503                           
   504                           ;init.c: 58: TRISD = 0b01010000;
   505  0002AC  0E50               	movlw	80
   506  0002AE  6E95               	movwf	3989,c	;volatile
   507                           
   508                           ;init.c: 59: TRISE = 0b00000000;
   509  0002B0  0E00               	movlw	0
   510  0002B2  6E96               	movwf	3990,c	;volatile
   511  0002B4  0012               	return		;funcret
   512  0002B6                     __end_of_InitTris:
   513                           	opt stack 0
   514                           postinc0	equ	0xFEE
   515                           wreg	equ	0xFE8
   516                           
   517 ;; *************** function _InitTimer *****************
   518 ;; Defined at:
   519 ;;		line 130 in file "init.c"
   520 ;; Parameters:    Size  Location     Type
   521 ;;		None
   522 ;; Auto vars:     Size  Location     Type
   523 ;;		None
   524 ;; Return value:  Size  Location     Type
   525 ;;		None               void
   526 ;; Registers used:
   527 ;;		wreg, status,2
   528 ;; Tracked objects:
   529 ;;		On entry : 0/0
   530 ;;		On exit  : 0/0
   531 ;;		Unchanged: 0/0
   532 ;; Data sizes:     COMRAM   BANK0   BANK1   BANK2   BANK3   BANK4   BANK5   BANK6   BANK7   BANK8   BANK9  BANK10  BANK1
      +1  BANK12  BANK13  BANK14  BANK15
   533 ;;      Params:         0       0       0       0       0       0       0       0       0       0       0       0       
      +0       0       0       0       0
   534 ;;      Locals:         0       0       0       0       0       0       0       0       0       0       0       0       
      +0       0       0       0       0
   535 ;;      Temps:          0       0       0       0       0       0       0       0       0       0       0       0       
      +0       0       0       0       0
   536 ;;      Totals:         0       0       0       0       0       0       0       0       0       0       0       0       
      +0       0       0       0       0
   537 ;;Total ram usage:        0 bytes
   538 ;; Hardware stack levels used:    1
   539 ;; Hardware stack levels required when called:    4
   540 ;; This function calls:
   541 ;;		Nothing
   542 ;; This function is called by:
   543 ;;		_Init
   544 ;; This function uses a non-reentrant model
   545 ;;
   546                           
   547                           	psect	text5
   548  00018E                     __ptext5:
   549                           	opt stack 0
   550  00018E                     _InitTimer:
   551                           	opt stack 25
   552                           
   553                           ;init.c: 133: T3GCONbits.TMR3GE = 1;
   554                           
   555                           ;incstack = 0
   556  00018E  8EB4               	bsf	4020,7,c	;volatile
   557                           
   558                           ;init.c: 134: T3GCONbits.T3GSPM = 0;
   559  000190  98B4               	bcf	4020,4,c	;volatile
   560                           
   561                           ;init.c: 135: T3GCONbits.T3GTM = 0;
   562  000192  9AB4               	bcf	4020,5,c	;volatile
   563                           
   564                           ;init.c: 136: T3GCONbits.T3GPOL = 1;
   565  000194  8CB4               	bsf	4020,6,c	;volatile
   566                           
   567                           ;init.c: 137: T3GCONbits.T3GSS = 0b00;
   568  000196  0EFC               	movlw	-4
   569  000198  16B4               	andwf	4020,f,c	;volatile
   570                           
   571                           ;init.c: 139: T3CONbits.TMR3CS = 0b00;
   572  00019A  0E3F               	movlw	-193
   573  00019C  16B1               	andwf	4017,f,c	;volatile
   574                           
   575                           ;init.c: 140: T3CONbits.T3CKPS = 0b00;
   576  00019E  0ECF               	movlw	-49
   577  0001A0  16B1               	andwf	4017,f,c	;volatile
   578                           
   579                           ;init.c: 141: T3CONbits.nT3SYNC = 1;
   580  0001A2  84B1               	bsf	4017,2,c	;volatile
   581                           
   582                           ;init.c: 142: T3CONbits.TMR3ON = 1;
   583  0001A4  80B1               	bsf	4017,0,c	;volatile
   584                           
   585                           ;init.c: 146: T5GCONbits.TMR5GE = 1;
   586  0001A6  010F               	movlb	15	; () banked
   587  0001A8  8F4D               	bsf	77,7,b	;volatile
   588                           
   589                           ; BSR set to: 15
   590                           ;init.c: 147: T5GCONbits.T5GSPM = 0;
   591  0001AA  010F               	movlb	15	; () banked
   592  0001AC  994D               	bcf	77,4,b	;volatile
   593                           
   594                           ; BSR set to: 15
   595                           ;init.c: 148: T5GCONbits.T5GTM = 0;
   596  0001AE  010F               	movlb	15	; () banked
   597  0001B0  9B4D               	bcf	77,5,b	;volatile
   598                           
   599                           ; BSR set to: 15
   600                           ;init.c: 149: T5GCONbits.T5GPOL = 1;
   601  0001B2  010F               	movlb	15	; () banked
   602  0001B4  8D4D               	bsf	77,6,b	;volatile
   603                           
   604                           ;init.c: 150: T5GCONbits.T5GSS = 0b00;
   605  0001B6  0EFC               	movlw	-4
   606  0001B8  010F               	movlb	15	; () banked
   607  0001BA  174D               	andwf	77,f,b	;volatile
   608                           
   609                           ;init.c: 152: T5CONbits.TMR5CS = 0b00;
   610  0001BC  0E3F               	movlw	-193
   611  0001BE  010F               	movlb	15	; () banked
   612  0001C0  174E               	andwf	78,f,b	;volatile
   613                           
   614                           ;init.c: 153: T5CONbits.T5CKPS = 0b00;
   615  0001C2  0ECF               	movlw	-49
   616  0001C4  010F               	movlb	15	; () banked
   617  0001C6  174E               	andwf	78,f,b	;volatile
   618                           
   619                           ; BSR set to: 15
   620                           ;init.c: 154: T5CONbits.nT5SYNC = 1;
   621  0001C8  010F               	movlb	15	; () banked
   622  0001CA  854E               	bsf	78,2,b	;volatile
   623                           
   624                           ; BSR set to: 15
   625                           ;init.c: 155: T5CONbits.TMR5ON = 1;
   626  0001CC  010F               	movlb	15	; () banked
   627  0001CE  814E               	bsf	78,0,b	;volatile
   628                           
   629                           ; BSR set to: 15
   630  0001D0  0012               	return		;funcret
   631  0001D2                     __end_of_InitTimer:
   632                           	opt stack 0
   633                           postinc0	equ	0xFEE
   634                           wreg	equ	0xFE8
   635                           
   636 ;; *************** function _InitSpi *****************
   637 ;; Defined at:
   638 ;;		line 112 in file "init.c"
   639 ;; Parameters:    Size  Location     Type
   640 ;;		None
   641 ;; Auto vars:     Size  Location     Type
   642 ;;		None
   643 ;; Return value:  Size  Location     Type
   644 ;;		None               void
   645 ;; Registers used:
   646 ;;		wreg, status,2
   647 ;; Tracked objects:
   648 ;;		On entry : 0/0
   649 ;;		On exit  : 0/0
   650 ;;		Unchanged: 0/0
   651 ;; Data sizes:     COMRAM   BANK0   BANK1   BANK2   BANK3   BANK4   BANK5   BANK6   BANK7   BANK8   BANK9  BANK10  BANK1
      +1  BANK12  BANK13  BANK14  BANK15
   652 ;;      Params:         0       0       0       0       0       0       0       0       0       0       0       0       
      +0       0       0       0       0
   653 ;;      Locals:         0       0       0       0       0       0       0       0       0       0       0       0       
      +0       0       0       0       0
   654 ;;      Temps:          0       0       0       0       0       0       0       0       0       0       0       0       
      +0       0       0       0       0
   655 ;;      Totals:         0       0       0       0       0       0       0       0       0       0       0       0       
      +0       0       0       0       0
   656 ;;Total ram usage:        0 bytes
   657 ;; Hardware stack levels used:    1
   658 ;; Hardware stack levels required when called:    4
   659 ;; This function calls:
   660 ;;		Nothing
   661 ;; This function is called by:
   662 ;;		_Init
   663 ;; This function uses a non-reentrant model
   664 ;;
   665                           
   666                           	psect	text6
   667  0002D8                     __ptext6:
   668                           	opt stack 0
   669  0002D8                     _InitSpi:
   670                           	opt stack 25
   671                           
   672                           ;init.c: 113: SSP1STAT = 0b00000000;
   673                           
   674                           ; BSR set to: 15
   675                           ;incstack = 0
   676  0002D8  0E00               	movlw	0
   677  0002DA  6EC7               	movwf	4039,c	;volatile
   678                           
   679                           ;init.c: 114: SSP1CON1 = 0b00100001;
   680  0002DC  0E21               	movlw	33
   681  0002DE  6EC6               	movwf	4038,c	;volatile
   682  0002E0  0012               	return		;funcret
   683  0002E2                     __end_of_InitSpi:
   684                           	opt stack 0
   685                           postinc0	equ	0xFEE
   686                           wreg	equ	0xFE8
   687                           
   688 ;; *************** function _InitPort *****************
   689 ;; Defined at:
   690 ;;		line 44 in file "init.c"
   691 ;; Parameters:    Size  Location     Type
   692 ;;		None
   693 ;; Auto vars:     Size  Location     Type
   694 ;;		None
   695 ;; Return value:  Size  Location     Type
   696 ;;		None               void
   697 ;; Registers used:
   698 ;;		wreg, status,2
   699 ;; Tracked objects:
   700 ;;		On entry : 0/0
   701 ;;		On exit  : 0/0
   702 ;;		Unchanged: 0/0
   703 ;; Data sizes:     COMRAM   BANK0   BANK1   BANK2   BANK3   BANK4   BANK5   BANK6   BANK7   BANK8   BANK9  BANK10  BANK1
      +1  BANK12  BANK13  BANK14  BANK15
   704 ;;      Params:         0       0       0       0       0       0       0       0       0       0       0       0       
      +0       0       0       0       0
   705 ;;      Locals:         0       0       0       0       0       0       0       0       0       0       0       0       
      +0       0       0       0       0
   706 ;;      Temps:          0       0       0       0       0       0       0       0       0       0       0       0       
      +0       0       0       0       0
   707 ;;      Totals:         0       0       0       0       0       0       0       0       0       0       0       0       
      +0       0       0       0       0
   708 ;;Total ram usage:        0 bytes
   709 ;; Hardware stack levels used:    1
   710 ;; Hardware stack levels required when called:    4
   711 ;; This function calls:
   712 ;;		Nothing
   713 ;; This function is called by:
   714 ;;		_Init
   715 ;; This function uses a non-reentrant model
   716 ;;
   717                           
   718                           	psect	text7
   719  0002B6                     __ptext7:
   720                           	opt stack 0
   721  0002B6                     _InitPort:
   722                           	opt stack 25
   723                           
   724                           ;init.c: 45: PORTA = 0b00010000;
   725                           
   726                           ;incstack = 0
   727  0002B6  0E10               	movlw	16
   728  0002B8  6E80               	movwf	3968,c	;volatile
   729                           
   730                           ;init.c: 46: PORTB = 0b00001000;
   731  0002BA  0E08               	movlw	8
   732  0002BC  6E81               	movwf	3969,c	;volatile
   733                           
   734                           ;init.c: 47: PORTC = 0b00000000;
   735  0002BE  0E00               	movlw	0
   736  0002C0  6E82               	movwf	3970,c	;volatile
   737                           
   738                           ;init.c: 48: PORTD = 0b00001000;
   739  0002C2  0E08               	movlw	8
   740  0002C4  6E83               	movwf	3971,c	;volatile
   741                           
   742                           ;init.c: 49: PORTE = 0b00000000;
   743  0002C6  0E00               	movlw	0
   744  0002C8  6E84               	movwf	3972,c	;volatile
   745  0002CA  0012               	return		;funcret
   746  0002CC                     __end_of_InitPort:
   747                           	opt stack 0
   748                           postinc0	equ	0xFEE
   749                           wreg	equ	0xFE8
   750                           
   751 ;; *************** function _InitOsc *****************
   752 ;; Defined at:
   753 ;;		line 74 in file "init.c"
   754 ;; Parameters:    Size  Location     Type
   755 ;;		None
   756 ;; Auto vars:     Size  Location     Type
   757 ;;		None
   758 ;; Return value:  Size  Location     Type
   759 ;;		None               void
   760 ;; Registers used:
   761 ;;		wreg, status,2
   762 ;; Tracked objects:
   763 ;;		On entry : 0/0
   764 ;;		On exit  : 0/0
   765 ;;		Unchanged: 0/0
   766 ;; Data sizes:     COMRAM   BANK0   BANK1   BANK2   BANK3   BANK4   BANK5   BANK6   BANK7   BANK8   BANK9  BANK10  BANK1
      +1  BANK12  BANK13  BANK14  BANK15
   767 ;;      Params:         0       0       0       0       0       0       0       0       0       0       0       0       
      +0       0       0       0       0
   768 ;;      Locals:         0       0       0       0       0       0       0       0       0       0       0       0       
      +0       0       0       0       0
   769 ;;      Temps:          0       0       0       0       0       0       0       0       0       0       0       0       
      +0       0       0       0       0
   770 ;;      Totals:         0       0       0       0       0       0       0       0       0       0       0       0       
      +0       0       0       0       0
   771 ;;Total ram usage:        0 bytes
   772 ;; Hardware stack levels used:    1
   773 ;; Hardware stack levels required when called:    4
   774 ;; This function calls:
   775 ;;		Nothing
   776 ;; This function is called by:
   777 ;;		_Init
   778 ;; This function uses a non-reentrant model
   779 ;;
   780                           
   781                           	psect	text8
   782  000302                     __ptext8:
   783                           	opt stack 0
   784  000302                     _InitOsc:
   785                           	opt stack 25
   786                           
   787                           ;init.c: 75: OSCCON = 0b01110111;
   788                           
   789                           ;incstack = 0
   790  000302  0E77               	movlw	119
   791  000304  6ED3               	movwf	4051,c	;volatile
   792  000306  0012               	return		;funcret
   793  000308                     __end_of_InitOsc:
   794                           	opt stack 0
   795                           postinc0	equ	0xFEE
   796                           wreg	equ	0xFE8
   797                           
   798 ;; *************** function _InitInterrupt *****************
   799 ;; Defined at:
   800 ;;		line 164 in file "init.c"
   801 ;; Parameters:    Size  Location     Type
   802 ;;		None
   803 ;; Auto vars:     Size  Location     Type
   804 ;;		None
   805 ;; Return value:  Size  Location     Type
   806 ;;		None               void
   807 ;; Registers used:
   808 ;;		None
   809 ;; Tracked objects:
   810 ;;		On entry : 0/0
   811 ;;		On exit  : 0/0
   812 ;;		Unchanged: 0/0
   813 ;; Data sizes:     COMRAM   BANK0   BANK1   BANK2   BANK3   BANK4   BANK5   BANK6   BANK7   BANK8   BANK9  BANK10  BANK1
      +1  BANK12  BANK13  BANK14  BANK15
   814 ;;      Params:         0       0       0       0       0       0       0       0       0       0       0       0       
      +0       0       0       0       0
   815 ;;      Locals:         0       0       0       0       0       0       0       0       0       0       0       0       
      +0       0       0       0       0
   816 ;;      Temps:          0       0       0       0       0       0       0       0       0       0       0       0       
      +0       0       0       0       0
   817 ;;      Totals:         0       0       0       0       0       0       0       0       0       0       0       0       
      +0       0       0       0       0
   818 ;;Total ram usage:        0 bytes
   819 ;; Hardware stack levels used:    1
   820 ;; Hardware stack levels required when called:    4
   821 ;; This function calls:
   822 ;;		Nothing
   823 ;; This function is called by:
   824 ;;		_Init
   825 ;; This function uses a non-reentrant model
   826 ;;
   827                           
   828                           	psect	text9
   829  0002E2                     __ptext9:
   830                           	opt stack 0
   831  0002E2                     _InitInterrupt:
   832                           	opt stack 25
   833                           
   834                           ;init.c: 165: GIE = 1;
   835                           
   836                           ;incstack = 0
   837  0002E2  8EF2               	bsf	intcon,7,c	;volatile
   838                           
   839                           ;init.c: 166: PEIE = 1;
   840  0002E4  8CF2               	bsf	intcon,6,c	;volatile
   841                           
   842                           ;init.c: 168: TMR3GIE = 0;
   843  0002E6  92A3               	bcf	4003,1,c	;volatile
   844  0002E8  0012               	return		;funcret
   845  0002EA                     __end_of_InitInterrupt:
   846                           	opt stack 0
   847                           intcon	equ	0xFF2
   848                           postinc0	equ	0xFEE
   849                           wreg	equ	0xFE8
   850                           
   851 ;; *************** function _InitAnsel *****************
   852 ;; Defined at:
   853 ;;		line 64 in file "init.c"
   854 ;; Parameters:    Size  Location     Type
   855 ;;		None
   856 ;; Auto vars:     Size  Location     Type
   857 ;;		None
   858 ;; Return value:  Size  Location     Type
   859 ;;		None               void
   860 ;; Registers used:
   861 ;;		wreg, status,2
   862 ;; Tracked objects:
   863 ;;		On entry : 0/0
   864 ;;		On exit  : 0/0
   865 ;;		Unchanged: 0/0
   866 ;; Data sizes:     COMRAM   BANK0   BANK1   BANK2   BANK3   BANK4   BANK5   BANK6   BANK7   BANK8   BANK9  BANK10  BANK1
      +1  BANK12  BANK13  BANK14  BANK15
   867 ;;      Params:         0       0       0       0       0       0       0       0       0       0       0       0       
      +0       0       0       0       0
   868 ;;      Locals:         0       0       0       0       0       0       0       0       0       0       0       0       
      +0       0       0       0       0
   869 ;;      Temps:          0       0       0       0       0       0       0       0       0       0       0       0       
      +0       0       0       0       0
   870 ;;      Totals:         0       0       0       0       0       0       0       0       0       0       0       0       
      +0       0       0       0       0
   871 ;;Total ram usage:        0 bytes
   872 ;; Hardware stack levels used:    1
   873 ;; Hardware stack levels required when called:    4
   874 ;; This function calls:
   875 ;;		Nothing
   876 ;; This function is called by:
   877 ;;		_Init
   878 ;; This function uses a non-reentrant model
   879 ;;
   880                           
   881                           	psect	text10
   882  00021C                     __ptext10:
   883                           	opt stack 0
   884  00021C                     _InitAnsel:
   885                           	opt stack 25
   886                           
   887                           ;init.c: 65: ANSELA = 0b00000000;
   888                           
   889                           ;incstack = 0
   890  00021C  0E00               	movlw	0
   891  00021E  010F               	movlb	15	; () banked
   892  000220  6F38               	movwf	56,b	;volatile
   893                           
   894                           ;init.c: 66: ANSELB = 0b00000000;
   895  000222  0E00               	movlw	0
   896  000224  010F               	movlb	15	; () banked
   897  000226  6F39               	movwf	57,b	;volatile
   898                           
   899                           ;init.c: 67: ANSELC = 0b00000000;
   900  000228  0E00               	movlw	0
   901  00022A  010F               	movlb	15	; () banked
   902  00022C  6F3A               	movwf	58,b	;volatile
   903                           
   904                           ;init.c: 68: ANSELD = 0b00000000;
   905  00022E  0E00               	movlw	0
   906  000230  010F               	movlb	15	; () banked
   907  000232  6F3B               	movwf	59,b	;volatile
   908                           
   909                           ;init.c: 69: ANSELE = 0b00000000;
   910  000234  0E00               	movlw	0
   911  000236  010F               	movlb	15	; () banked
   912  000238  6F3C               	movwf	60,b	;volatile
   913                           
   914                           ; BSR set to: 15
   915  00023A  0012               	return		;funcret
   916  00023C                     __end_of_InitAnsel:
   917                           	opt stack 0
   918                           intcon	equ	0xFF2
   919                           postinc0	equ	0xFEE
   920                           wreg	equ	0xFE8
   921                           
   922 ;; *************** function _isr *****************
   923 ;; Defined at:
   924 ;;		line 84 in file "main.c"
   925 ;; Parameters:    Size  Location     Type
   926 ;;		None
   927 ;; Auto vars:     Size  Location     Type
   928 ;;		None
   929 ;; Return value:  Size  Location     Type
   930 ;;		None               void
   931 ;; Registers used:
   932 ;;		wreg, fsr2l, fsr2h, status,2, status,0, prodl, prodh, cstack
   933 ;; Tracked objects:
   934 ;;		On entry : 0/0
   935 ;;		On exit  : 0/0
   936 ;;		Unchanged: 0/0
   937 ;; Data sizes:     COMRAM   BANK0   BANK1   BANK2   BANK3   BANK4   BANK5   BANK6   BANK7   BANK8   BANK9  BANK10  BANK1
      +1  BANK12  BANK13  BANK14  BANK15
   938 ;;      Params:         0       0       0       0       0       0       0       0       0       0       0       0       
      +0       0       0       0       0
   939 ;;      Locals:         0       0       0       0       0       0       0       0       0       0       0       0       
      +0       0       0       0       0
   940 ;;      Temps:         14       0       0       0       0       0       0       0       0       0       0       0       
      +0       0       0       0       0
   941 ;;      Totals:        14       0       0       0       0       0       0       0       0       0       0       0       
      +0       0       0       0       0
   942 ;;Total ram usage:       14 bytes
   943 ;; Hardware stack levels used:    1
   944 ;; Hardware stack levels required when called:    3
   945 ;; This function calls:
   946 ;;		_UartDump
   947 ;;		_UartStore
   948 ;; This function is called by:
   949 ;;		Interrupt level 2
   950 ;; This function uses a non-reentrant model
   951 ;;
   952                           
   953                           	psect	intcode
   954  000008                     __pintcode:
   955                           	opt stack 0
   956  000008                     _isr:
   957                           	opt stack 25
   958                           
   959                           ; BSR set to: 15
   960                           ;incstack = 0
   961  000008  8237               	bsf	btemp,1,c	;set compiler interrupt flag (level 2)
   962  00000A  CFFA F027          	movff	pclath,??_isr
   963  00000E  CFFB F028          	movff	pclatu,??_isr+1
   964  000012  CFE9 F029          	movff	fsr0l,??_isr+2
   965  000016  CFEA F02A          	movff	fsr0h,??_isr+3
   966  00001A  CFE1 F02B          	movff	fsr1l,??_isr+4
   967  00001E  CFE2 F02C          	movff	fsr1h,??_isr+5
   968  000022  CFD9 F02D          	movff	fsr2l,??_isr+6
   969  000026  CFDA F02E          	movff	fsr2h,??_isr+7
   970  00002A  CFF3 F02F          	movff	prodl,??_isr+8
   971  00002E  CFF4 F030          	movff	prodh,??_isr+9
   972  000032  CFF6 F031          	movff	tblptrl,??_isr+10
   973  000036  CFF7 F032          	movff	tblptrh,??_isr+11
   974  00003A  CFF8 F033          	movff	tblptru,??_isr+12
   975  00003E  CFF5 F034          	movff	tablat,??_isr+13
   976                           
   977                           ;main.c: 85: if(RC1IF == 1) {
   978  000042  AA9E               	btfss	3998,5,c	;volatile
   979  000044  D008               	goto	i2l178
   980                           
   981                           ;main.c: 86: RC1IF = 0;
   982  000046  9A9E               	bcf	3998,5,c	;volatile
   983                           
   984                           ;main.c: 87: if(PORTDbits.RD4 == 1) {
   985  000048  A883               	btfss	3971,4,c	;volatile
   986  00004A  D003               	goto	i2l1143
   987                           
   988                           ;main.c: 88: UartStore();
   989  00004C  EC4B  F000         	call	_UartStore	;wreg free
   990                           
   991                           ;main.c: 89: }else {
   992  000050  D002               	goto	i2l178
   993  000052                     i2l1143:
   994                           
   995                           ;main.c: 90: UartDump();
   996  000052  EC7D  F001         	call	_UartDump	;wreg free
   997  000056                     i2l178:
   998  000056  C034  FFF5         	movff	??_isr+13,tablat
   999  00005A  C033  FFF8         	movff	??_isr+12,tblptru
  1000  00005E  C032  FFF7         	movff	??_isr+11,tblptrh
  1001  000062  C031  FFF6         	movff	??_isr+10,tblptrl
  1002  000066  C030  FFF4         	movff	??_isr+9,prodh
  1003  00006A  C02F  FFF3         	movff	??_isr+8,prodl
  1004  00006E  C02E  FFDA         	movff	??_isr+7,fsr2h
  1005  000072  C02D  FFD9         	movff	??_isr+6,fsr2l
  1006  000076  C02C  FFE2         	movff	??_isr+5,fsr1h
  1007  00007A  C02B  FFE1         	movff	??_isr+4,fsr1l
  1008  00007E  C02A  FFEA         	movff	??_isr+3,fsr0h
  1009  000082  C029  FFE9         	movff	??_isr+2,fsr0l
  1010  000086  C028  FFFB         	movff	??_isr+1,pclatu
  1011  00008A  C027  FFFA         	movff	??_isr,pclath
  1012  00008E  9237               	bcf	btemp,1,c	;clear compiler interrupt flag (level 2)
  1013  000090  0011               	retfie		f
  1014  000092                     __end_of_isr:
  1015                           	opt stack 0
  1016                           pclatu	equ	0xFFB
  1017                           pclath	equ	0xFFA
  1018                           tblptru	equ	0xFF8
  1019                           tblptrh	equ	0xFF7
  1020                           tblptrl	equ	0xFF6
  1021                           tablat	equ	0xFF5
  1022                           prodh	equ	0xFF4
  1023                           prodl	equ	0xFF3
  1024                           intcon	equ	0xFF2
  1025                           postinc0	equ	0xFEE
  1026                           fsr0h	equ	0xFEA
  1027                           fsr0l	equ	0xFE9
  1028                           wreg	equ	0xFE8
  1029                           fsr1h	equ	0xFE2
  1030                           fsr1l	equ	0xFE1
  1031                           fsr2h	equ	0xFDA
  1032                           fsr2l	equ	0xFD9
  1033                           
  1034 ;; *************** function _UartStore *****************
  1035 ;; Defined at:
  1036 ;;		line 10 in file "wlan.c"
  1037 ;; Parameters:    Size  Location     Type
  1038 ;;		None
  1039 ;; Auto vars:     Size  Location     Type
  1040 ;;		None
  1041 ;; Return value:  Size  Location     Type
  1042 ;;		None               void
  1043 ;; Registers used:
  1044 ;;		wreg, fsr2l, fsr2h, status,2, status,0, prodl, prodh, cstack
  1045 ;; Tracked objects:
  1046 ;;		On entry : 0/0
  1047 ;;		On exit  : 0/0
  1048 ;;		Unchanged: 0/0
  1049 ;; Data sizes:     COMRAM   BANK0   BANK1   BANK2   BANK3   BANK4   BANK5   BANK6   BANK7   BANK8   BANK9  BANK10  BANK1
      +1  BANK12  BANK13  BANK14  BANK15
  1050 ;;      Params:         0       0       0       0       0       0       0       0       0       0       0       0       
      +0       0       0       0       0
  1051 ;;      Locals:         0       0       0       0       0       0       0       0       0       0       0       0       
      +0       0       0       0       0
  1052 ;;      Temps:          0       0       0       0       0       0       0       0       0       0       0       0       
      +0       0       0       0       0
  1053 ;;      Totals:         0       0       0       0       0       0       0       0       0       0       0       0       
      +0       0       0       0       0
  1054 ;;Total ram usage:        0 bytes
  1055 ;; Hardware stack levels used:    1
  1056 ;; Hardware stack levels required when called:    2
  1057 ;; This function calls:
  1058 ;;		_UartDump
  1059 ;;		_UartReceive
  1060 ;;		_UartSendError
  1061 ;;		_UartSendOverflow
  1062 ;; This function is called by:
  1063 ;;		_isr
  1064 ;; This function uses a non-reentrant model
  1065 ;;
  1066                           
  1067                           	psect	text12
  1068  000096                     __ptext12:
  1069                           	opt stack 0
  1070  000096                     _UartStore:
  1071                           	opt stack 25
  1072                           
  1073                           ;wlan.c: 11: received = UartReceive();
  1074                           
  1075                           ;incstack = 0
  1076  000096  EC66  F001         	call	_UartReceive	;wreg free
  1077  00009A  6E25               	movwf	_received,c
  1078                           
  1079                           ;wlan.c: 12: if(received == '<') {
  1080  00009C  0E3C               	movlw	60
  1081  00009E  1825               	xorwf	_received,w,c
  1082  0000A0  A4D8               	btfss	status,2,c
  1083  0000A2  D00B               	goto	i2l1081
  1084                           
  1085                           ;wlan.c: 13: received = UartReceive();
  1086  0000A4  EC66  F001         	call	_UartReceive	;wreg free
  1087  0000A8  6E25               	movwf	_received,c
  1088                           
  1089                           ;wlan.c: 14: if(received == '<') {
  1090  0000AA  0E3C               	movlw	60
  1091  0000AC  1825               	xorwf	_received,w,c
  1092  0000AE  A4D8               	btfss	status,2,c
  1093  0000B0  0012               	return	
  1094                           
  1095                           ;wlan.c: 15: receiving_ok = 1;
  1096  0000B2  8236               	bsf	_receiving_ok/(0+8),_receiving_ok& (0+7),c
  1097                           
  1098                           ;wlan.c: 16: c_path = 0;
  1099  0000B4  0E00               	movlw	0
  1100  0000B6  6E22               	movwf	_c_path,c
  1101                           
  1102                           ;wlan.c: 17: }
  1103                           ;wlan.c: 18: }else if(received == 0x04) {
  1104  0000B8  0012               	return	
  1105  0000BA                     i2l1081:
  1106  0000BA  0E04               	movlw	4
  1107  0000BC  1825               	xorwf	_received,w,c
  1108  0000BE  A4D8               	btfss	status,2,c
  1109  0000C0  D005               	goto	i2l1089
  1110                           
  1111                           ;wlan.c: 20: c_path = 0;
  1112  0000C2  0E00               	movlw	0
  1113  0000C4  6E22               	movwf	_c_path,c
  1114                           
  1115                           ;wlan.c: 21: path_name = 0;
  1116  0000C6  9036               	bcf	_path_name/(0+8),_path_name& (0+7),c
  1117                           
  1118                           ;wlan.c: 22: receiving_ok = 0;
  1119  0000C8  9236               	bcf	_receiving_ok/(0+8),_receiving_ok& (0+7),c
  1120                           
  1121                           ;wlan.c: 23: }else if(received == 0x17){
  1122  0000CA  0012               	return	
  1123  0000CC                     i2l1089:
  1124  0000CC  0E17               	movlw	23
  1125  0000CE  1825               	xorwf	_received,w,c
  1126  0000D0  A4D8               	btfss	status,2,c
  1127  0000D2  D004               	goto	i2l1095
  1128                           
  1129                           ;wlan.c: 25: c_name = 0;
  1130                           
  1131                           ;wlan.c: 24: NAME:
  1132  0000D4  0E00               	movlw	0
  1133  0000D6  6E21               	movwf	_c_name,c
  1134                           
  1135                           ;wlan.c: 26: path_name = 1;
  1136  0000D8  8036               	bsf	_path_name/(0+8),_path_name& (0+7),c
  1137                           
  1138                           ;wlan.c: 27: }else if(received == '>') {
  1139  0000DA  0012               	return	
  1140  0000DC                     i2l1095:
  1141  0000DC  0E3E               	movlw	62
  1142  0000DE  1825               	xorwf	_received,w,c
  1143  0000E0  A4D8               	btfss	status,2,c
  1144  0000E2  D00E               	goto	i2l1105
  1145                           
  1146                           ;wlan.c: 29: received = UartReceive();
  1147  0000E4  EC66  F001         	call	_UartReceive	;wreg free
  1148  0000E8  6E25               	movwf	_received,c
  1149                           
  1150                           ;wlan.c: 30: if(received == '>'){
  1151  0000EA  0E3E               	movlw	62
  1152  0000EC  1825               	xorwf	_received,w,c
  1153  0000EE  A4D8               	btfss	status,2,c
  1154  0000F0  D004               	goto	i2l1103
  1155                           
  1156                           ;wlan.c: 32: numb_cc = c_path;
  1157  0000F2  C022  F023         	movff	_c_path,_numb_cc
  1158                           
  1159                           ;wlan.c: 33: receiving_ok = 0;
  1160  0000F6  9236               	bcf	_receiving_ok/(0+8),_receiving_ok& (0+7),c
  1161                           
  1162                           ;wlan.c: 34: }else {
  1163  0000F8  0012               	return	
  1164  0000FA                     i2l1103:
  1165                           
  1166                           ;wlan.c: 35: UartSendError();
  1167  0000FA  EC79  F001         	call	_UartSendError	;wreg free
  1168                           
  1169                           ;wlan.c: 36: }
  1170                           ;wlan.c: 37: }else if(received == 0x1D) {
  1171  0000FE  0012               	return	
  1172  000100                     i2l1105:
  1173  000100  0E1D               	movlw	29
  1174  000102  1825               	xorwf	_received,w,c
  1175  000104  A4D8               	btfss	status,2,c
  1176  000106  D003               	goto	i2l267
  1177                           
  1178                           ;wlan.c: 38: numb_cc_table = c_path;
  1179  000108  C022  F024         	movff	_c_path,_numb_cc_table
  1180                           
  1181                           ;wlan.c: 39: }else if(receiving_ok == 1){
  1182  00010C  0012               	return	
  1183  00010E                     i2l267:
  1184  00010E  A236               	btfss	_receiving_ok/(0+8),_receiving_ok& (0+7),c
  1185  000110  D03B               	goto	i2l1135
  1186                           
  1187                           ;wlan.c: 40: if(path_name == 0) {
  1188  000112  B036               	btfsc	_path_name/(0+8),_path_name& (0+7),c
  1189  000114  D024               	goto	i2l270
  1190                           
  1191                           ;wlan.c: 41: a_path[c_path].lower_cc = received;
  1192  000116  5022               	movf	_c_path,w,c
  1193  000118  0D02               	mullw	2
  1194  00011A  0E60               	movlw	low _a_path
  1195  00011C  24F3               	addwf	prodl,w,c
  1196  00011E  6ED9               	movwf	fsr2l,c
  1197  000120  0E00               	movlw	high _a_path
  1198  000122  20F4               	addwfc	prodh,w,c
  1199  000124  6EDA               	movwf	fsr2h,c
  1200  000126  C025  FFDF         	movff	_received,indf2
  1201                           
  1202                           ;wlan.c: 42: received = UartReceive();
  1203  00012A  EC66  F001         	call	_UartReceive	;wreg free
  1204  00012E  6E25               	movwf	_received,c
  1205                           
  1206                           ;wlan.c: 43: a_path[c_path].higher_cc = received;
  1207  000130  5022               	movf	_c_path,w,c
  1208  000132  0D02               	mullw	2
  1209  000134  0E01               	movlw	1
  1210  000136  26F3               	addwf	prodl,f,c
  1211  000138  0E00               	movlw	0
  1212  00013A  22F4               	addwfc	prodh,f,c
  1213  00013C  0E60               	movlw	low _a_path
  1214  00013E  24F3               	addwf	prodl,w,c
  1215  000140  6ED9               	movwf	fsr2l,c
  1216  000142  0E00               	movlw	high _a_path
  1217  000144  20F4               	addwfc	prodh,w,c
  1218  000146  6EDA               	movwf	fsr2h,c
  1219  000148  C025  FFDF         	movff	_received,indf2
  1220                           
  1221                           ;wlan.c: 44: c_path++;
  1222  00014C  2A22               	incf	_c_path,f,c
  1223                           
  1224                           ;wlan.c: 45: if(c_path > 20) {
  1225  00014E  0E14               	movlw	20
  1226  000150  6422               	cpfsgt	_c_path,c
  1227  000152  0012               	return	
  1228                           
  1229                           ;wlan.c: 46: UartSendOverflow();
  1230  000154  EC75  F001         	call	_UartSendOverflow	;wreg free
  1231                           
  1232                           ;wlan.c: 47: c_path = 0;
  1233  000158  0E00               	movlw	0
  1234  00015A  6E22               	movwf	_c_path,c
  1235                           
  1236                           ;wlan.c: 48: }
  1237                           ;wlan.c: 49: }else if(path_name == 1) {
  1238  00015C  0012               	return	
  1239  00015E                     i2l270:
  1240  00015E  A036               	btfss	_path_name/(0+8),_path_name& (0+7),c
  1241  000160  0012               	return	
  1242                           
  1243                           ;wlan.c: 50: a_name[c_name] = received;
  1244  000162  5021               	movf	_c_name,w,c
  1245  000164  0D01               	mullw	1
  1246  000166  0E01               	movlw	low _a_name
  1247  000168  24F3               	addwf	prodl,w,c
  1248  00016A  6ED9               	movwf	fsr2l,c
  1249  00016C  0E00               	movlw	high _a_name
  1250  00016E  20F4               	addwfc	prodh,w,c
  1251  000170  6EDA               	movwf	fsr2h,c
  1252  000172  C025  FFDF         	movff	_received,indf2
  1253                           
  1254                           ;wlan.c: 51: c_name++;
  1255  000176  2A21               	incf	_c_name,f,c
  1256                           
  1257                           ;wlan.c: 52: if(c_name > 32) {
  1258  000178  0E20               	movlw	32
  1259  00017A  6421               	cpfsgt	_c_name,c
  1260  00017C  0012               	return	
  1261                           
  1262                           ;wlan.c: 53: UartSendOverflow();
  1263  00017E  EC75  F001         	call	_UartSendOverflow	;wreg free
  1264                           
  1265                           ;wlan.c: 54: c_name = 0;
  1266  000182  0E00               	movlw	0
  1267  000184  6E21               	movwf	_c_name,c
  1268                           
  1269                           ;wlan.c: 55: }
  1270                           ;wlan.c: 56: }
  1271                           ;wlan.c: 57: }else {
  1272  000186  0012               	return	
  1273  000188                     i2l1135:
  1274                           
  1275                           ;wlan.c: 58: UartDump();
  1276  000188  EC7D  F001         	call	_UartDump	;wreg free
  1277  00018C  0012               	return	
  1278  00018E                     __end_of_UartStore:
  1279                           	opt stack 0
  1280                           pclatu	equ	0xFFB
  1281                           pclath	equ	0xFFA
  1282                           tblptru	equ	0xFF8
  1283                           tblptrh	equ	0xFF7
  1284                           tblptrl	equ	0xFF6
  1285                           tablat	equ	0xFF5
  1286                           prodh	equ	0xFF4
  1287                           prodl	equ	0xFF3
  1288                           intcon	equ	0xFF2
  1289                           postinc0	equ	0xFEE
  1290                           fsr0h	equ	0xFEA
  1291                           fsr0l	equ	0xFE9
  1292                           wreg	equ	0xFE8
  1293                           fsr1h	equ	0xFE2
  1294                           fsr1l	equ	0xFE1
  1295                           indf2	equ	0xFDF
  1296                           fsr2h	equ	0xFDA
  1297                           fsr2l	equ	0xFD9
  1298                           status	equ	0xFD8
  1299                           
  1300 ;; *************** function _UartSendOverflow *****************
  1301 ;; Defined at:
  1302 ;;		line 65 in file "wlan.c"
  1303 ;; Parameters:    Size  Location     Type
  1304 ;;		None
  1305 ;; Auto vars:     Size  Location     Type
  1306 ;;		None
  1307 ;; Return value:  Size  Location     Type
  1308 ;;		None               void
  1309 ;; Registers used:
  1310 ;;		wreg, status,2, cstack
  1311 ;; Tracked objects:
  1312 ;;		On entry : 0/0
  1313 ;;		On exit  : 0/0
  1314 ;;		Unchanged: 0/0
  1315 ;; Data sizes:     COMRAM   BANK0   BANK1   BANK2   BANK3   BANK4   BANK5   BANK6   BANK7   BANK8   BANK9  BANK10  BANK1
      +1  BANK12  BANK13  BANK14  BANK15
  1316 ;;      Params:         0       0       0       0       0       0       0       0       0       0       0       0       
      +0       0       0       0       0
  1317 ;;      Locals:         0       0       0       0       0       0       0       0       0       0       0       0       
      +0       0       0       0       0
  1318 ;;      Temps:          0       0       0       0       0       0       0       0       0       0       0       0       
      +0       0       0       0       0
  1319 ;;      Totals:         0       0       0       0       0       0       0       0       0       0       0       0       
      +0       0       0       0       0
  1320 ;;Total ram usage:        0 bytes
  1321 ;; Hardware stack levels used:    1
  1322 ;; Hardware stack levels required when called:    1
  1323 ;; This function calls:
  1324 ;;		_UartSend
  1325 ;; This function is called by:
  1326 ;;		_UartStore
  1327 ;; This function uses a non-reentrant model
  1328 ;;
  1329                           
  1330                           	psect	text13
  1331  0002EA                     __ptext13:
  1332                           	opt stack 0
  1333  0002EA                     _UartSendOverflow:
  1334                           	opt stack 25
  1335                           
  1336                           ;wlan.c: 66: UartSend(0x11);
  1337                           
  1338                           ;incstack = 0
  1339  0002EA  0E11               	movlw	17
  1340  0002EC  EC39  F001         	call	_UartSend
  1341  0002F0  0012               	return		;funcret
  1342  0002F2                     __end_of_UartSendOverflow:
  1343                           	opt stack 0
  1344                           pclatu	equ	0xFFB
  1345                           pclath	equ	0xFFA
  1346                           tblptru	equ	0xFF8
  1347                           tblptrh	equ	0xFF7
  1348                           tblptrl	equ	0xFF6
  1349                           tablat	equ	0xFF5
  1350                           prodh	equ	0xFF4
  1351                           prodl	equ	0xFF3
  1352                           intcon	equ	0xFF2
  1353                           postinc0	equ	0xFEE
  1354                           fsr0h	equ	0xFEA
  1355                           fsr0l	equ	0xFE9
  1356                           wreg	equ	0xFE8
  1357                           fsr1h	equ	0xFE2
  1358                           fsr1l	equ	0xFE1
  1359                           indf2	equ	0xFDF
  1360                           fsr2h	equ	0xFDA
  1361                           fsr2l	equ	0xFD9
  1362                           status	equ	0xFD8
  1363                           
  1364 ;; *************** function _UartSendError *****************
  1365 ;; Defined at:
  1366 ;;		line 69 in file "wlan.c"
  1367 ;; Parameters:    Size  Location     Type
  1368 ;;		None
  1369 ;; Auto vars:     Size  Location     Type
  1370 ;;		None
  1371 ;; Return value:  Size  Location     Type
  1372 ;;		None               void
  1373 ;; Registers used:
  1374 ;;		wreg, status,2, cstack
  1375 ;; Tracked objects:
  1376 ;;		On entry : 0/0
  1377 ;;		On exit  : 0/0
  1378 ;;		Unchanged: 0/0
  1379 ;; Data sizes:     COMRAM   BANK0   BANK1   BANK2   BANK3   BANK4   BANK5   BANK6   BANK7   BANK8   BANK9  BANK10  BANK1
      +1  BANK12  BANK13  BANK14  BANK15
  1380 ;;      Params:         0       0       0       0       0       0       0       0       0       0       0       0       
      +0       0       0       0       0
  1381 ;;      Locals:         0       0       0       0       0       0       0       0       0       0       0       0       
      +0       0       0       0       0
  1382 ;;      Temps:          0       0       0       0       0       0       0       0       0       0       0       0       
      +0       0       0       0       0
  1383 ;;      Totals:         0       0       0       0       0       0       0       0       0       0       0       0       
      +0       0       0       0       0
  1384 ;;Total ram usage:        0 bytes
  1385 ;; Hardware stack levels used:    1
  1386 ;; Hardware stack levels required when called:    1
  1387 ;; This function calls:
  1388 ;;		_UartSend
  1389 ;; This function is called by:
  1390 ;;		_UartStore
  1391 ;; This function uses a non-reentrant model
  1392 ;;
  1393                           
  1394                           	psect	text14
  1395  0002F2                     __ptext14:
  1396                           	opt stack 0
  1397  0002F2                     _UartSendError:
  1398                           	opt stack 25
  1399                           
  1400                           ;wlan.c: 70: UartSend(0x15);
  1401                           
  1402                           ;incstack = 0
  1403  0002F2  0E15               	movlw	21
  1404  0002F4  EC39  F001         	call	_UartSend
  1405  0002F8  0012               	return		;funcret
  1406  0002FA                     __end_of_UartSendError:
  1407                           	opt stack 0
  1408                           pclatu	equ	0xFFB
  1409                           pclath	equ	0xFFA
  1410                           tblptru	equ	0xFF8
  1411                           tblptrh	equ	0xFF7
  1412                           tblptrl	equ	0xFF6
  1413                           tablat	equ	0xFF5
  1414                           prodh	equ	0xFF4
  1415                           prodl	equ	0xFF3
  1416                           intcon	equ	0xFF2
  1417                           postinc0	equ	0xFEE
  1418                           fsr0h	equ	0xFEA
  1419                           fsr0l	equ	0xFE9
  1420                           wreg	equ	0xFE8
  1421                           fsr1h	equ	0xFE2
  1422                           fsr1l	equ	0xFE1
  1423                           indf2	equ	0xFDF
  1424                           fsr2h	equ	0xFDA
  1425                           fsr2l	equ	0xFD9
  1426                           status	equ	0xFD8
  1427                           
  1428 ;; *************** function _UartSend *****************
  1429 ;; Defined at:
  1430 ;;		line 4 in file "communication.c"
  1431 ;; Parameters:    Size  Location     Type
  1432 ;;  data            1    wreg     unsigned char 
  1433 ;; Auto vars:     Size  Location     Type
  1434 ;;  data            1    0[COMRAM] unsigned char 
  1435 ;; Return value:  Size  Location     Type
  1436 ;;		None               void
  1437 ;; Registers used:
  1438 ;;		wreg, status,2, cstack
  1439 ;; Tracked objects:
  1440 ;;		On entry : 0/0
  1441 ;;		On exit  : 0/0
  1442 ;;		Unchanged: 0/0
  1443 ;; Data sizes:     COMRAM   BANK0   BANK1   BANK2   BANK3   BANK4   BANK5   BANK6   BANK7   BANK8   BANK9  BANK10  BANK1
      +1  BANK12  BANK13  BANK14  BANK15
  1444 ;;      Params:         0       0       0       0       0       0       0       0       0       0       0       0       
      +0       0       0       0       0
  1445 ;;      Locals:         1       0       0       0       0       0       0       0       0       0       0       0       
      +0       0       0       0       0
  1446 ;;      Temps:          0       0       0       0       0       0       0       0       0       0       0       0       
      +0       0       0       0       0
  1447 ;;      Totals:         1       0       0       0       0       0       0       0       0       0       0       0       
      +0       0       0       0       0
  1448 ;;Total ram usage:        1 bytes
  1449 ;; Hardware stack levels used:    1
  1450 ;; This function calls:
  1451 ;;		Nothing
  1452 ;; This function is called by:
  1453 ;;		_UartSendOverflow
  1454 ;;		_UartSendError
  1455 ;; This function uses a non-reentrant model
  1456 ;;
  1457                           
  1458                           	psect	text15
  1459  000272                     __ptext15:
  1460                           	opt stack 0
  1461  000272                     _UartSend:
  1462                           	opt stack 25
  1463                           
  1464                           ;incstack = 0
  1465                           ;UartSend@data stored from wreg
  1466  000272  6E26               	movwf	UartSend@data,c
  1467                           
  1468                           ;communication.c: 5: if(TX1IF == 1) {
  1469  000274  A89E               	btfss	3998,4,c	;volatile
  1470  000276  D004               	goto	i2l1053
  1471                           
  1472                           ;communication.c: 6: _delay((unsigned long)((200)*(16000000/4000000.0)));
  1473  000278  0EC8               	movlw	200
  1474  00027A                     i2u40_47:
  1475  00027A  F000               	nop	
  1476  00027C  2EE8               	decfsz	wreg,f,c
  1477  00027E  D7FD               	goto	i2u40_47
  1478  000280                     i2l1053:
  1479                           
  1480                           ;communication.c: 7: }
  1481                           ;communication.c: 8: TXREG1 = data;
  1482  000280  C026  FFAD         	movff	UartSend@data,4013	;volatile
  1483  000284                     i2l217:
  1484  000284  A89E               	btfss	3998,4,c	;volatile
  1485  000286  0012               	return	
  1486  000288  D7FD               	goto	i2l217
  1487  00028A                     __end_of_UartSend:
  1488                           	opt stack 0
  1489                           pclatu	equ	0xFFB
  1490                           pclath	equ	0xFFA
  1491                           tblptru	equ	0xFF8
  1492                           tblptrh	equ	0xFF7
  1493                           tblptrl	equ	0xFF6
  1494                           tablat	equ	0xFF5
  1495                           prodh	equ	0xFF4
  1496                           prodl	equ	0xFF3
  1497                           intcon	equ	0xFF2
  1498                           postinc0	equ	0xFEE
  1499                           fsr0h	equ	0xFEA
  1500                           fsr0l	equ	0xFE9
  1501                           wreg	equ	0xFE8
  1502                           fsr1h	equ	0xFE2
  1503                           fsr1l	equ	0xFE1
  1504                           indf2	equ	0xFDF
  1505                           fsr2h	equ	0xFDA
  1506                           fsr2l	equ	0xFD9
  1507                           status	equ	0xFD8
  1508                           
  1509 ;; *************** function _UartDump *****************
  1510 ;; Defined at:
  1511 ;;		line 74 in file "wlan.c"
  1512 ;; Parameters:    Size  Location     Type
  1513 ;;		None
  1514 ;; Auto vars:     Size  Location     Type
  1515 ;;  dumpdata        1    0[COMRAM] unsigned char 
  1516 ;; Return value:  Size  Location     Type
  1517 ;;		None               void
  1518 ;; Registers used:
  1519 ;;		wreg, status,2, cstack
  1520 ;; Tracked objects:
  1521 ;;		On entry : 0/0
  1522 ;;		On exit  : 0/0
  1523 ;;		Unchanged: 0/0
  1524 ;; Data sizes:     COMRAM   BANK0   BANK1   BANK2   BANK3   BANK4   BANK5   BANK6   BANK7   BANK8   BANK9  BANK10  BANK1
      +1  BANK12  BANK13  BANK14  BANK15
  1525 ;;      Params:         0       0       0       0       0       0       0       0       0       0       0       0       
      +0       0       0       0       0
  1526 ;;      Locals:         1       0       0       0       0       0       0       0       0       0       0       0       
      +0       0       0       0       0
  1527 ;;      Temps:          0       0       0       0       0       0       0       0       0       0       0       0       
      +0       0       0       0       0
  1528 ;;      Totals:         1       0       0       0       0       0       0       0       0       0       0       0       
      +0       0       0       0       0
  1529 ;;Total ram usage:        1 bytes
  1530 ;; Hardware stack levels used:    1
  1531 ;; Hardware stack levels required when called:    1
  1532 ;; This function calls:
  1533 ;;		_UartReceive
  1534 ;; This function is called by:
  1535 ;;		_isr
  1536 ;;		_UartStore
  1537 ;; This function uses a non-reentrant model
  1538 ;;
  1539                           
  1540                           	psect	text16
  1541  0002FA                     __ptext16:
  1542                           	opt stack 0
  1543  0002FA                     _UartDump:
  1544                           	opt stack 25
  1545                           
  1546                           ;wlan.c: 75: unsigned char dumpdata;
  1547                           ;wlan.c: 76: dumpdata = UartReceive();
  1548                           
  1549                           ;incstack = 0
  1550  0002FA  EC66  F001         	call	_UartReceive	;wreg free
  1551  0002FE  6E26               	movwf	UartDump@dumpdata,c
  1552  000300  0012               	return		;funcret
  1553  000302                     __end_of_UartDump:
  1554                           	opt stack 0
  1555                           pclatu	equ	0xFFB
  1556                           pclath	equ	0xFFA
  1557                           tblptru	equ	0xFF8
  1558                           tblptrh	equ	0xFF7
  1559                           tblptrl	equ	0xFF6
  1560                           tablat	equ	0xFF5
  1561                           prodh	equ	0xFF4
  1562                           prodl	equ	0xFF3
  1563                           intcon	equ	0xFF2
  1564                           postinc0	equ	0xFEE
  1565                           fsr0h	equ	0xFEA
  1566                           fsr0l	equ	0xFE9
  1567                           wreg	equ	0xFE8
  1568                           fsr1h	equ	0xFE2
  1569                           fsr1l	equ	0xFE1
  1570                           indf2	equ	0xFDF
  1571                           fsr2h	equ	0xFDA
  1572                           fsr2l	equ	0xFD9
  1573                           status	equ	0xFD8
  1574                           
  1575 ;; *************** function _UartReceive *****************
  1576 ;; Defined at:
  1577 ;;		line 12 in file "communication.c"
  1578 ;; Parameters:    Size  Location     Type
  1579 ;;		None
  1580 ;; Auto vars:     Size  Location     Type
  1581 ;;		None
  1582 ;; Return value:  Size  Location     Type
  1583 ;;                  1    wreg      unsigned char 
  1584 ;; Registers used:
  1585 ;;		wreg, status,2
  1586 ;; Tracked objects:
  1587 ;;		On entry : 0/0
  1588 ;;		On exit  : 0/0
  1589 ;;		Unchanged: 0/0
  1590 ;; Data sizes:     COMRAM   BANK0   BANK1   BANK2   BANK3   BANK4   BANK5   BANK6   BANK7   BANK8   BANK9  BANK10  BANK1
      +1  BANK12  BANK13  BANK14  BANK15
  1591 ;;      Params:         0       0       0       0       0       0       0       0       0       0       0       0       
      +0       0       0       0       0
  1592 ;;      Locals:         0       0       0       0       0       0       0       0       0       0       0       0       
      +0       0       0       0       0
  1593 ;;      Temps:          0       0       0       0       0       0       0       0       0       0       0       0       
      +0       0       0       0       0
  1594 ;;      Totals:         0       0       0       0       0       0       0       0       0       0       0       0       
      +0       0       0       0       0
  1595 ;;Total ram usage:        0 bytes
  1596 ;; Hardware stack levels used:    1
  1597 ;; This function calls:
  1598 ;;		Nothing
  1599 ;; This function is called by:
  1600 ;;		_UartStore
  1601 ;;		_UartDump
  1602 ;; This function uses a non-reentrant model
  1603 ;;
  1604                           
  1605                           	psect	text17
  1606  0002CC                     __ptext17:
  1607                           	opt stack 0
  1608  0002CC                     _UartReceive:
  1609                           	opt stack 26
  1610                           
  1611                           ;communication.c: 13: if(RCSTA1bits.OERR == 1) {
  1612                           
  1613                           ;incstack = 0
  1614  0002CC  A2AB               	btfss	4011,1,c	;volatile
  1615  0002CE  D002               	goto	i2l1059
  1616                           
  1617                           ;communication.c: 14: RCSTA1bits.CREN = 0;
  1618  0002D0  98AB               	bcf	4011,4,c	;volatile
  1619                           
  1620                           ;communication.c: 15: RCSTA1bits.CREN = 1;
  1621  0002D2  88AB               	bsf	4011,4,c	;volatile
  1622  0002D4                     i2l1059:
  1623                           
  1624                           ;communication.c: 16: }
  1625                           ;communication.c: 17: return RCREG1;
  1626  0002D4  50AE               	movf	4014,w,c	;volatile
  1627  0002D6  0012               	return	
  1628  0002D8                     __end_of_UartReceive:
  1629                           	opt stack 0
  1630  0000                     pclatu	equ	0xFFB
  1631                           pclath	equ	0xFFA
  1632                           tblptru	equ	0xFF8
  1633                           tblptrh	equ	0xFF7
  1634                           tblptrl	equ	0xFF6
  1635                           tablat	equ	0xFF5
  1636                           prodh	equ	0xFF4
  1637                           prodl	equ	0xFF3
  1638                           intcon	equ	0xFF2
  1639                           postinc0	equ	0xFEE
  1640                           fsr0h	equ	0xFEA
  1641                           fsr0l	equ	0xFE9
  1642                           wreg	equ	0xFE8
  1643                           fsr1h	equ	0xFE2
  1644                           fsr1l	equ	0xFE1
  1645                           indf2	equ	0xFDF
  1646                           fsr2h	equ	0xFDA
  1647                           fsr2l	equ	0xFD9
  1648                           status	equ	0xFD8
  1649                           pclatu	equ	0xFFB
  1650                           pclath	equ	0xFFA
  1651                           tblptru	equ	0xFF8
  1652                           tblptrh	equ	0xFF7
  1653                           tblptrl	equ	0xFF6
  1654                           tablat	equ	0xFF5
  1655                           prodh	equ	0xFF4
  1656                           prodl	equ	0xFF3
  1657                           intcon	equ	0xFF2
  1658                           postinc0	equ	0xFEE
  1659                           fsr0h	equ	0xFEA
  1660                           fsr0l	equ	0xFE9
  1661                           wreg	equ	0xFE8
  1662                           fsr1h	equ	0xFE2
  1663                           fsr1l	equ	0xFE1
  1664                           indf2	equ	0xFDF
  1665                           fsr2h	equ	0xFDA
  1666                           fsr2l	equ	0xFD9
  1667                           status	equ	0xFD8
  1668                           
  1669                           	psect	rparam
  1670  0000                     pclatu	equ	0xFFB
  1671                           pclath	equ	0xFFA
  1672                           tblptru	equ	0xFF8
  1673                           tblptrh	equ	0xFF7
  1674                           tblptrl	equ	0xFF6
  1675                           tablat	equ	0xFF5
  1676                           prodh	equ	0xFF4
  1677                           prodl	equ	0xFF3
  1678                           intcon	equ	0xFF2
  1679                           postinc0	equ	0xFEE
  1680                           fsr0h	equ	0xFEA
  1681                           fsr0l	equ	0xFE9
  1682                           wreg	equ	0xFE8
  1683                           fsr1h	equ	0xFE2
  1684                           fsr1l	equ	0xFE1
  1685                           indf2	equ	0xFDF
  1686                           fsr2h	equ	0xFDA
  1687                           fsr2l	equ	0xFD9
  1688                           status	equ	0xFD8
  1689                           
  1690                           	psect	temp
  1691  000037                     btemp:
  1692                           	opt stack 0
  1693  000037                     	ds	1
  1694  0000                     int$flags	set	btemp
  1695                           pclatu	equ	0xFFB
  1696                           pclath	equ	0xFFA
  1697                           tblptru	equ	0xFF8
  1698                           tblptrh	equ	0xFF7
  1699                           tblptrl	equ	0xFF6
  1700                           tablat	equ	0xFF5
  1701                           prodh	equ	0xFF4
  1702                           prodl	equ	0xFF3
  1703                           intcon	equ	0xFF2
  1704                           postinc0	equ	0xFEE
  1705                           fsr0h	equ	0xFEA
  1706                           fsr0l	equ	0xFE9
  1707                           wreg	equ	0xFE8
  1708                           fsr1h	equ	0xFE2
  1709                           fsr1l	equ	0xFE1
  1710                           indf2	equ	0xFDF
  1711                           fsr2h	equ	0xFDA
  1712                           fsr2l	equ	0xFD9
  1713                           status	equ	0xFD8


Data Sizes:
    Strings     0
    Constant    0
    Data        0
    BSS         79
    Persistent  0
    Stack       0

Auto Spaces:
    Space          Size  Autos    Used
    COMRAM           94     16      54
    BANK0           160      0      42
    BANK1           256      0       0
    BANK2           256      0       0
    BANK3           256      0       0
    BANK4           256      0       0
    BANK5           256      0       0
    BANK6           256      0       0
    BANK7           256      0       0
    BANK8           256      0       0
    BANK9           256      0       0
    BANK10          256      0       0
    BANK11          256      0       0
    BANK12          256      0       0
    BANK13          256      0       0
    BANK14          256      0       0
    BANK15           56      0       0

Pointer List with Targets:

    None.

Critical Paths under _main in COMRAM

    _main->_InitWlan
    _Init->_InitWlan

Critical Paths under _isr in COMRAM

    _isr->_UartDump
    _UartStore->_UartDump
    _UartSendOverflow->_UartSend
    _UartSendError->_UartSend

Critical Paths under _main in BANK0

    None.

Critical Paths under _isr in BANK0

    None.

Critical Paths under _main in BANK1

    None.

Critical Paths under _isr in BANK1

    None.

Critical Paths under _main in BANK2

    None.

Critical Paths under _isr in BANK2

    None.

Critical Paths under _main in BANK3

    None.

Critical Paths under _isr in BANK3

    None.

Critical Paths under _main in BANK4

    None.

Critical Paths under _isr in BANK4

    None.

Critical Paths under _main in BANK5

    None.

Critical Paths under _isr in BANK5

    None.

Critical Paths under _main in BANK6

    None.

Critical Paths under _isr in BANK6

    None.

Critical Paths under _main in BANK7

    None.

Critical Paths under _isr in BANK7

    None.

Critical Paths under _main in BANK8

    None.

Critical Paths under _isr in BANK8

    None.

Critical Paths under _main in BANK9

    None.

Critical Paths under _isr in BANK9

    None.

Critical Paths under _main in BANK10

    None.

Critical Paths under _isr in BANK10

    None.

Critical Paths under _main in BANK11

    None.

Critical Paths under _isr in BANK11

    None.

Critical Paths under _main in BANK12

    None.

Critical Paths under _isr in BANK12

    None.

Critical Paths under _main in BANK13

    None.

Critical Paths under _isr in BANK13

    None.

Critical Paths under _main in BANK14

    None.

Critical Paths under _isr in BANK14

    None.

Critical Paths under _main in BANK15

    None.

Critical Paths under _isr in BANK15

    None.

Call Graph Tables:

 ---------------------------------------------------------------------------------
 (Depth) Function   	        Calls       Base Space   Used Autos Params    Refs
 ---------------------------------------------------------------------------------
 (0) _main                                                 0     0      0       0
                               _Init
                           _InitWlan
 ---------------------------------------------------------------------------------
 (1) _Init                                                 0     0      0       0
                          _InitAnsel
                      _InitInterrupt
                            _InitOsc
                           _InitPort
                            _InitSpi
                          _InitTimer
                           _InitTris
                           _InitUart
                           _InitWlan
 ---------------------------------------------------------------------------------
 (1) _InitWlan                                             1     1      0       0
                                             15 COMRAM     1     1      0
 ---------------------------------------------------------------------------------
 (2) _InitUart                                             0     0      0       0
 ---------------------------------------------------------------------------------
 (2) _InitTris                                             0     0      0       0
 ---------------------------------------------------------------------------------
 (2) _InitTimer                                            0     0      0       0
 ---------------------------------------------------------------------------------
 (2) _InitSpi                                              0     0      0       0
 ---------------------------------------------------------------------------------
 (2) _InitPort                                             0     0      0       0
 ---------------------------------------------------------------------------------
 (2) _InitOsc                                              0     0      0       0
 ---------------------------------------------------------------------------------
 (2) _InitInterrupt                                        0     0      0       0
 ---------------------------------------------------------------------------------
 (2) _InitAnsel                                            0     0      0       0
 ---------------------------------------------------------------------------------
 Estimated maximum stack depth 2
 ---------------------------------------------------------------------------------
 (Depth) Function   	        Calls       Base Space   Used Autos Params    Refs
 ---------------------------------------------------------------------------------
 (3) _isr                                                 14    14      0      46
                                              1 COMRAM    14    14      0
                           _UartDump
                          _UartStore
 ---------------------------------------------------------------------------------
 (4) _UartStore                                            0     0      0      45
                           _UartDump
                        _UartReceive
                      _UartSendError
                   _UartSendOverflow
 ---------------------------------------------------------------------------------
 (5) _UartSendOverflow                                     0     0      0      22
                           _UartSend
 ---------------------------------------------------------------------------------
 (5) _UartSendError                                        0     0      0      22
                           _UartSend
 ---------------------------------------------------------------------------------
 (6) _UartSend                                             1     1      0      22
                                              0 COMRAM     1     1      0
 ---------------------------------------------------------------------------------
 (5) _UartDump                                             1     1      0       1
                                              0 COMRAM     1     1      0
                        _UartReceive
 ---------------------------------------------------------------------------------
 (5) _UartReceive                                          0     0      0       0
 ---------------------------------------------------------------------------------
 Estimated maximum stack depth 6
 ---------------------------------------------------------------------------------

 Call Graph Graphs:

 _main (ROOT)
   _Init
     _InitAnsel
     _InitInterrupt
     _InitOsc
     _InitPort
     _InitSpi
     _InitTimer
     _InitTris
     _InitUart
     _InitWlan
   _InitWlan

 _isr (ROOT)
   _UartDump
     _UartReceive
   _UartStore
     _UartDump
       _UartReceive
     _UartReceive
     _UartSendError
       _UartSend
     _UartSendOverflow
       _UartSend

 Address spaces:
Name               Size   Autos  Total    Cost      Usage
BIGRAM             F37      0       0      37        0.0%
EEDATA             400      0       0       0        0.0%
BITBANK14          100      0       0      33        0.0%
BANK14             100      0       0      34        0.0%
BITBANK13          100      0       0      31        0.0%
BANK13             100      0       0      32        0.0%
BITBANK12          100      0       0      29        0.0%
BANK12             100      0       0      30        0.0%
BITBANK11          100      0       0      27        0.0%
BANK11             100      0       0      28        0.0%
BITBANK10          100      0       0      25        0.0%
BANK10             100      0       0      26        0.0%
BITBANK9           100      0       0      23        0.0%
BANK9              100      0       0      24        0.0%
BITBANK8           100      0       0      21        0.0%
BANK8              100      0       0      22        0.0%
BITBANK7           100      0       0      19        0.0%
BANK7              100      0       0      20        0.0%
BITBANK6           100      0       0      17        0.0%
BANK6              100      0       0      18        0.0%
BITBANK5           100      0       0      15        0.0%
BANK5              100      0       0      16        0.0%
BITBANK4           100      0       0      13        0.0%
BANK4              100      0       0      14        0.0%
BITBANK3           100      0       0      10        0.0%
BANK3              100      0       0      11        0.0%
BITBANK2           100      0       0       8        0.0%
BANK2              100      0       0       9        0.0%
BITBANK1           100      0       0       6        0.0%
BANK1              100      0       0       7        0.0%
BITBANK0            A0      0       0       4        0.0%
BANK0               A0      0      2A       5       26.3%
BITCOMRAM           5E      0       1       0        1.1%
COMRAM              5E     10      36       1       57.4%
BITBANK15           38      0       0      35        0.0%
BANK15              38      0       0      36        0.0%
BITSFR_1             0      0       0      40        0.0%
SFR_1                0      0       0      40        0.0%
BITSFR               0      0       0      40        0.0%
SFR                  0      0       0      40        0.0%
STACK                0      0       0       2        0.0%
NULL                 0      0       0       0        0.0%
ABS                  0      0      60      12        0.0%
DATA                 0      0      60       3        0.0%
CODE                 0      0       0       0        0.0%


Microchip Technology PIC18 Macro Assembler V1.35 build -356382666 
Symbol Table                                                                                   Tue Jan 12 11:25:17 2016

             __CFG_CP0$OFF 000000               __CFG_CP1$OFF 000000               __CFG_CP2$OFF 000000  
             __CFG_CP3$OFF 000000                        l132 023C                        l135 0252  
                      _GIE 007F97               __CFG_CPB$OFF 000000                        u205 0266  
                      u207 0268               __CFG_CPD$OFF 000000                        u397 0248  
                      _isr 0008                        prod 000FF3                        wreg 000FE8  
               _TXSTA1bits 000FAC   __end_of_UartSendOverflow 02F2               __CFG_LVP$OFF 000000  
                     l1041 025C                       ?_isr 0026                       _PEIE 007F96  
                     _Init 01D2                       _main 0258                       fsr0h 000FEA  
                     fsr1h 000FE2                       fsr0l 000FE9                       fsr2h 000FDA  
                     fsr1l 000FE1                       indf2 000FDF                       fsr2l 000FD9  
                     btemp 0037              __CFG_BORV$190 000000                       pclat 000FFA  
                     prodh 000FF4                       prodl 000FF3                       start 0092  
            __CFG_IESO$OFF 000000               ___param_bank 000010              _InitInterrupt 02E2  
          __end_of_InitOsc 0308            __end_of_InitSpi 02E2                      ??_isr 0027  
             _BAUDCON1bits 000FB8                      ?_Init 0026                      ?_main 0026  
                    _RC1IE 007CED                      _RC1IF 007CF5             __CFG_DEBUG$OFF 000000  
                    i2l217 0284                      i2l270 015E                      i2l178 0056  
                    i2l267 010E                      _TX1IF 007CF4                      _PORTA 000F80  
                    _PORTB 000F81                      _PORTC 000F82                      _PORTD 000F83  
                    _PORTE 000F84                      _TRISA 000F92                      _TRISB 000F93  
                    _TRISC 000F94                      _TRISD 000F95                      _TRISE 000F96  
            __CFG_WRT0$OFF 000000              __CFG_WRT1$OFF 000000              __CFG_WRT2$OFF 000000  
            __CFG_WRT3$OFF 000000             __CFG_EBTR0$OFF 000000             __CFG_FCMEN$OFF 000000  
           __CFG_EBTR1$OFF 000000             __CFG_EBTR2$OFF 000000             __CFG_EBTR3$OFF 000000  
            __CFG_WRTB$OFF 000000              __CFG_WRTC$OFF 000000              __CFG_WRTD$OFF 000000  
           __CFG_EBTRB$OFF 000000         __CFG_MCLRE$EXTMCLR 000000             __pbitbssCOMRAM 01B0  
                    tablat 000FF5                      status 000FD8             __CFG_HFOFST$ON 000000  
           __CFG_PBADEN$ON 000000      __end_of_UartSendError 02FA             ?_InitInterrupt 0026  
          __initialization 01F8               __end_of_Init 01F8               __end_of_main 0272  
         __end_of_InitUart 02A0           __end_of_InitPort 02CC           __end_of_InitWlan 0258  
         __end_of_InitTris 02B6                     ??_Init 0036                     ??_main 0036  
            __activetblptr 000000           __end_of_UartDump 0302           __end_of_UartSend 028A  
                   _ANSELA 000F38                     _ANSELB 000F39                     _ANSELC 000F3A  
                   _ANSELD 000F3B                     _ANSELE 000F3C                     i2l1103 00FA  
                   i2l1105 0100                     i2l1053 0280                     i2l1135 0188  
                   i2l1143 0052                     i2l1081 00BA                     i2l1059 02D4  
                   i2l1095 00DC                     i2l1089 00CC             __CFG_WDTEN$OFF 000000  
                   _RCREG1 000FAE                     _OSCCON 000FD3         __size_of_InitAnsel 0020  
                   _SPBRG1 000FAF         __size_of_InitTimer 0044                     _TXREG1 000FAD  
                ??_InitOsc 0035                  ??_InitSpi 0035              ??_UartReceive 0026  
           __CFG_XINST$OFF 000000                     _a_name 0001                     _a_path 0060  
                   _c_name 0021                     _c_path 0022             __CFG_STVREN$ON 000000  
                   clear_0 01FE                     clear_1 020C         __size_of_UartStore 00F8  
                   tblptrh 000FF7                     tblptrl 000FF6                     tblptru 000FF8  
               __accesstop 0060    __end_of__initialization 0212            ??_InitInterrupt 0035  
            ___rparam_used 000001             __pcstackCOMRAM 0026        __end_of_UartReceive 02D8  
        __end_of_InitAnsel 023C          __end_of_InitTimer 01D2           UartDump@dumpdata 0026  
        ?_UartSendOverflow 0026                 __pbssBANK0 0060            __CFG_PLLCFG$OFF 000000  
       ??_UartSendOverflow 0027                  ?_InitUart 0026                  ?_InitPort 0026  
                ?_InitWlan 0026                  ?_InitTris 0026          __end_of_UartStore 018E  
                ?_UartDump 0026         __CFG_CCP2MX$PORTC1 000000                  ?_UartSend 0026  
       __CFG_CCP3MX$PORTB5 000000                    i2u40_47 027A          __CFG_PRICLKEN$OFF 000000  
                  _TMR3GIE 007D19                 ??_InitUart 0035                 ??_InitPort 0035  
               ??_InitWlan 0035                 ??_InitTris 0035                    _InitOsc 0302  
                  _InitSpi 02D8            __CFG_PWRTEN$OFF 000000                    __Hparam 0000  
              _UartReceive 02CC                    __Lparam 0000                 ??_UartDump 0026  
               ??_UartSend 0026                    __pcinit 01F8                    __ramtop 1000  
                  __ptext0 0258                    __ptext1 01D2                    __ptext2 023C  
                  __ptext3 028A                    __ptext4 02A0                    __ptext5 018E  
                  __ptext6 02D8                    __ptext7 02B6                    __ptext8 0302  
                  __ptext9 02E2               __size_of_isr 008A                  _T3CONbits 000FB1  
                _T5CONbits 000F4E                    _numb_cc 0023       end_of_initialization 0212  
                  postinc0 000FEE                  _PORTBbits 000F81                  _PORTDbits 000F83  
   __size_of_UartSendError 0008        start_initialization 01F8                  _InitAnsel 021C  
                _InitTimer 018E                __end_of_isr 0092          __size_of_InitUart 0016  
        __size_of_InitPort 0016          __size_of_InitWlan 001C          __size_of_InitTris 0016  
            _UartSendError 02F2      __end_of_InitInterrupt 02EA                  _UartStore 0096  
__size_of_UartSendOverflow 0008          __size_of_UartDump 0008          __size_of_UartSend 0018  
              __pbssCOMRAM 0001                 ?_InitAnsel 0026                 ?_InitTimer 0026  
                 ?_InitOsc 0026                   ?_InitSpi 0026             ?_UartSendError 0026  
             ?_UartReceive 0026                 ?_UartStore 0026                  __pintcode 0008  
                _path_name 01B0               _receiving_ok 01B1               UartSend@data 0026  
         __CFG_WDTPS$32768 000000                   _SSP1CON1 000FC6                   _SSP1STAT 000FC7  
              ??_InitAnsel 0035                ??_InitTimer 0035              _numb_cc_table 0024  
                 _InitUart 028A                   _InitPort 02B6                   _InitWlan 023C  
                 _InitTris 02A0            ??_UartSendError 0027                   __Hrparam 0000  
         __size_of_InitOsc 0006           __size_of_InitSpi 000A                   _UartDump 02FA  
                 _UartSend 0272                   __Lrparam 0000                ??_UartStore 0027  
       __CFG_BOREN$SBORDIS 000000           _UartSendOverflow 02EA          __CFG_P2BMX$PORTD2 000000  
                 __ptext10 021C                   __ptext12 0096                   __ptext13 02EA  
                 __ptext14 02F2                   __ptext15 0272                   __ptext16 02FA  
                 __ptext17 02CC                 _T3GCONbits 000FB4              __size_of_Init 0026  
            __size_of_main 001A                 _T5GCONbits 000F4D                   _received 0025  
     __size_of_UartReceive 000C                   int$flags 0037                   intlevel2 0000  
               _RCSTA1bits 000FAB          __CFG_T3CMX$PORTC0 000000     __size_of_InitInterrupt 0008  
        __CFG_FOSC$INTIO67 000000  
