

Microchip Technology PIC18 LITE Macro Assembler V1.35 build -356382666 
                                                                                               Tue Jan 12 15:59:56 2016

Microchip Technology Omniscient Code Generator v1.35 (Free mode) build 201507080246
     1                           	processor	18F46K22
     2                           	fnconf	rparam,??,?,0
     3                           	opt	pw 120
     4                           	opt	lm
     5                           	psect	cinit,global,reloc=2,class=CODE,delta=1
     6                           	psect	bssCOMRAM,global,class=COMRAM,space=1,delta=1
     7                           	psect	cstackCOMRAM,global,class=COMRAM,space=1,delta=1
     8                           	psect	text0,global,reloc=2,class=CODE,delta=1
     9                           	psect	text1,global,reloc=2,class=CODE,delta=1
    10                           	psect	text2,global,reloc=2,class=CODE,delta=1
    11                           	psect	text3,global,reloc=2,class=CODE,delta=1
    12                           	psect	text4,global,reloc=2,class=CODE,delta=1
    13                           	psect	text5,global,reloc=2,class=CODE,delta=1
    14                           	psect	text6,global,reloc=2,class=CODE,delta=1
    15                           	psect	text7,global,reloc=2,class=CODE,delta=1
    16                           	psect	intsave_regs,global,class=BIGRAM,space=1,delta=1
    17                           	psect	rparam,global,class=COMRAM,space=1,delta=1
    18  0000                     _ANSELA	set	3896
    19  0000                     _ANSELB	set	3897
    20  0000                     _ANSELC	set	3898
    21  0000                     _ANSELD	set	3899
    22  0000                     _ANSELE	set	3900
    23  0000                     _T5CONbits	set	3918
    24  0000                     _T5GCONbits	set	3917
    25  0000                     _TMR5H	set	3920
    26  0000                     _TMR5L	set	3919
    27  0000                     _OSCCON	set	4051
    28  0000                     _PORTA	set	3968
    29  0000                     _PORTB	set	3969
    30  0000                     _PORTBbits	set	3969
    31  0000                     _PORTC	set	3970
    32  0000                     _PORTD	set	3971
    33  0000                     _PORTE	set	3972
    34  0000                     _TRISA	set	3986
    35  0000                     _TRISB	set	3987
    36  0000                     _TRISC	set	3988
    37  0000                     _TRISD	set	3989
    38  0000                     _TRISE	set	3990
    39  0000                     _TMR5GIF	set	32034
    40                           
    41                           ; #config settings
    42  0000                     
    43                           	psect	cinit
    44  00FB1A                     __pcinit:
    45                           	opt stack 0
    46  00FB1A                     start_initialization:
    47                           	opt stack 0
    48  00FB1A                     __initialization:
    49                           	opt stack 0
    50                           
    51                           ; Clear objects allocated to COMRAM (5 bytes)
    52  00FB1A  6A34               	clrf	(__pbssCOMRAM+4)& (0+255),c
    53  00FB1C  6A33               	clrf	(__pbssCOMRAM+3)& (0+255),c
    54  00FB1E  6A32               	clrf	(__pbssCOMRAM+2)& (0+255),c
    55  00FB20  6A31               	clrf	(__pbssCOMRAM+1)& (0+255),c
    56  00FB22  6A30               	clrf	__pbssCOMRAM& (0+255),c
    57  00FB24                     end_of_initialization:
    58                           	opt stack 0
    59  00FB24                     __end_of__initialization:
    60                           	opt stack 0
    61  00FB24  0100               	movlb	0
    62  00FB26  EF88  F07D         	goto	_main	;jump to C main() function
    63                           
    64                           	psect	bssCOMRAM
    65  000030                     __pbssCOMRAM:
    66                           	opt stack 0
    67  000030                     _distance:
    68                           	opt stack 0
    69  000030                     	ds	3
    70  000033                     _time:
    71                           	opt stack 0
    72  000033                     	ds	2
    73                           
    74                           	psect	cstackCOMRAM
    75  000001                     __pcstackCOMRAM:
    76                           	opt stack 0
    77  000001                     ?___ftpack:
    78                           	opt stack 0
    79  000001                     ___ftpack@arg:
    80                           	opt stack 0
    81  000001                     ___ftge@ff1:
    82                           	opt stack 0
    83                           
    84                           ; 3 bytes @ 0x0
    85  000001                     	ds	3
    86  000004                     ___ftpack@exp:
    87                           	opt stack 0
    88  000004                     ___ftge@ff2:
    89                           	opt stack 0
    90                           
    91                           ; 3 bytes @ 0x3
    92  000004                     	ds	1
    93  000005                     ___ftpack@sign:
    94                           	opt stack 0
    95                           
    96                           ; 1 bytes @ 0x4
    97  000005                     	ds	1
    98  000006                     ??___ftpack:
    99                           
   100                           ; 0 bytes @ 0x5
   101  000006                     	ds	1
   102  000007                     ??___ftge:
   103                           
   104                           ; 0 bytes @ 0x6
   105  000007                     	ds	2
   106  000009                     ?___lwtoft:
   107                           	opt stack 0
   108  000009                     ___lwtoft@c:
   109                           	opt stack 0
   110                           
   111                           ; 2 bytes @ 0x8
   112  000009                     	ds	3
   113  00000C                     ?___ftmul:
   114                           	opt stack 0
   115  00000C                     ___ftmul@f1:
   116                           	opt stack 0
   117                           
   118                           ; 3 bytes @ 0xB
   119  00000C                     	ds	3
   120  00000F                     ___ftmul@f2:
   121                           	opt stack 0
   122                           
   123                           ; 3 bytes @ 0xE
   124  00000F                     	ds	3
   125  000012                     ??___ftmul:
   126                           
   127                           ; 0 bytes @ 0x11
   128  000012                     	ds	3
   129  000015                     ___ftmul@exp:
   130                           	opt stack 0
   131                           
   132                           ; 1 bytes @ 0x14
   133  000015                     	ds	1
   134  000016                     ___ftmul@f3_as_product:
   135                           	opt stack 0
   136                           
   137                           ; 3 bytes @ 0x15
   138  000016                     	ds	3
   139  000019                     ___ftmul@cntr:
   140                           	opt stack 0
   141                           
   142                           ; 1 bytes @ 0x18
   143  000019                     	ds	1
   144  00001A                     ___ftmul@sign:
   145                           	opt stack 0
   146                           
   147                           ; 1 bytes @ 0x19
   148  00001A                     	ds	1
   149  00001B                     ?___ftdiv:
   150                           	opt stack 0
   151  00001B                     ___ftdiv@f1:
   152                           	opt stack 0
   153                           
   154                           ; 3 bytes @ 0x1A
   155  00001B                     	ds	3
   156  00001E                     ___ftdiv@f2:
   157                           	opt stack 0
   158                           
   159                           ; 3 bytes @ 0x1D
   160  00001E                     	ds	3
   161  000021                     ??___ftdiv:
   162                           
   163                           ; 0 bytes @ 0x20
   164  000021                     	ds	3
   165  000024                     ___ftdiv@cntr:
   166                           	opt stack 0
   167                           
   168                           ; 1 bytes @ 0x23
   169  000024                     	ds	1
   170  000025                     ___ftdiv@f3:
   171                           	opt stack 0
   172                           
   173                           ; 3 bytes @ 0x24
   174  000025                     	ds	3
   175  000028                     ___ftdiv@exp:
   176                           	opt stack 0
   177                           
   178                           ; 1 bytes @ 0x27
   179  000028                     	ds	1
   180  000029                     ___ftdiv@sign:
   181                           	opt stack 0
   182                           
   183                           ; 1 bytes @ 0x28
   184  000029                     	ds	1
   185  00002A                     ??_measure:
   186                           
   187                           ; 0 bytes @ 0x29
   188  00002A                     	ds	1
   189  00002B                     
   190                           ; 2 bytes @ 0x2A
   191  00002B                     	ds	2
   192  00002D                     
   193                           ; 3 bytes @ 0x2C
   194  00002D                     	ds	3
   195  000030                     
   196                           ; 0 bytes @ 0x2F
   197 ;;
   198 ;;Main: autosize = 0, tempsize = 0, incstack = 0, save=0
   199 ;;
   200 ;; *************** function _main *****************
   201 ;; Defined at:
   202 ;;		line 157 in file "2015-09-15_Labor_Ultraschallsensor.c"
   203 ;; Parameters:    Size  Location     Type
   204 ;;  argc            2   42[COMRAM] int 
   205 ;;  argv            3   44[COMRAM] PTR PTR unsigned char 
   206 ;; Auto vars:     Size  Location     Type
   207 ;;		None
   208 ;; Return value:  Size  Location     Type
   209 ;;                  2   42[COMRAM] int 
   210 ;; Registers used:
   211 ;;		wreg, status,2, status,0, cstack
   212 ;; Tracked objects:
   213 ;;		On entry : 0/0
   214 ;;		On exit  : 0/0
   215 ;;		Unchanged: 0/0
   216 ;; Data sizes:     COMRAM   BANK0   BANK1   BANK2   BANK3   BANK4   BANK5   BANK6   BANK7   BANK8   BANK9  BANK10  BANK1
      +1  BANK12  BANK13  BANK14  BANK15
   217 ;;      Params:         5       0       0       0       0       0       0       0       0       0       0       0       
      +0       0       0       0       0
   218 ;;      Locals:         0       0       0       0       0       0       0       0       0       0       0       0       
      +0       0       0       0       0
   219 ;;      Temps:          0       0       0       0       0       0       0       0       0       0       0       0       
      +0       0       0       0       0
   220 ;;      Totals:         5       0       0       0       0       0       0       0       0       0       0       0       
      +0       0       0       0       0
   221 ;;Total ram usage:        5 bytes
   222 ;; Hardware stack levels required when called:    3
   223 ;; This function calls:
   224 ;;		_init
   225 ;;		_measure
   226 ;; This function is called by:
   227 ;;		Startup code after reset
   228 ;; This function uses a non-reentrant model
   229 ;;
   230                           
   231                           	psect	text0
   232  00FB10                     __ptext0:
   233                           	opt stack 0
   234  00FB10                     _main:
   235                           	opt stack 28
   236                           
   237                           ;2015-09-15_Labor_Ultraschallsensor.c: 158: init();
   238                           
   239                           ; BSR set to: 15
   240                           ;incstack = 0
   241  00FB10  ECA7  F07D         	call	_init	;wreg free
   242  00FB14                     l1098:
   243                           
   244                           ;2015-09-15_Labor_Ultraschallsensor.c: 160: measure();
   245  00FB14  EC6E  F07F         	call	_measure	;wreg free
   246  00FB18  D7FD               	goto	l1098
   247  00FB1A                     __end_of_main:
   248                           	opt stack 0
   249                           
   250 ;; *************** function _measure *****************
   251 ;; Defined at:
   252 ;;		line 131 in file "2015-09-15_Labor_Ultraschallsensor.c"
   253 ;; Parameters:    Size  Location     Type
   254 ;;		None
   255 ;; Auto vars:     Size  Location     Type
   256 ;;		None
   257 ;; Return value:  Size  Location     Type
   258 ;;		None               void
   259 ;; Registers used:
   260 ;;		wreg, status,2, status,0, cstack
   261 ;; Tracked objects:
   262 ;;		On entry : 0/0
   263 ;;		On exit  : 0/0
   264 ;;		Unchanged: 0/0
   265 ;; Data sizes:     COMRAM   BANK0   BANK1   BANK2   BANK3   BANK4   BANK5   BANK6   BANK7   BANK8   BANK9  BANK10  BANK1
      +1  BANK12  BANK13  BANK14  BANK15
   266 ;;      Params:         0       0       0       0       0       0       0       0       0       0       0       0       
      +0       0       0       0       0
   267 ;;      Locals:         0       0       0       0       0       0       0       0       0       0       0       0       
      +0       0       0       0       0
   268 ;;      Temps:          1       0       0       0       0       0       0       0       0       0       0       0       
      +0       0       0       0       0
   269 ;;      Totals:         1       0       0       0       0       0       0       0       0       0       0       0       
      +0       0       0       0       0
   270 ;;Total ram usage:        1 bytes
   271 ;; Hardware stack levels used:    1
   272 ;; Hardware stack levels required when called:    2
   273 ;; This function calls:
   274 ;;		___ftdiv
   275 ;;		___ftge
   276 ;;		___ftmul
   277 ;;		___lwtoft
   278 ;; This function is called by:
   279 ;;		_main
   280 ;; This function uses a non-reentrant model
   281 ;;
   282                           
   283                           	psect	text1
   284  00FEDC                     __ptext1:
   285                           	opt stack 0
   286  00FEDC                     _measure:
   287                           	opt stack 28
   288                           
   289                           ;2015-09-15_Labor_Ultraschallsensor.c: 132: PORTBbits.RB3 = 0;
   290                           
   291                           ;incstack = 0
   292  00FEDC  9681               	bcf	3969,3,c	;volatile
   293  00FEDE                     l58:
   294  00FEDE  A4A4               	btfss	4004,2,c	;volatile
   295  00FEE0  D7FE               	goto	l58
   296                           
   297                           ;2015-09-15_Labor_Ultraschallsensor.c: 134: TMR5GIF = 0;
   298  00FEE2  94A4               	bcf	4004,2,c	;volatile
   299                           
   300                           ;2015-09-15_Labor_Ultraschallsensor.c: 135: time = 0;
   301  00FEE4  0E00               	movlw	0
   302  00FEE6  6E34               	movwf	_time+1,c
   303  00FEE8  0E00               	movlw	0
   304  00FEEA  6E33               	movwf	_time,c
   305                           
   306                           ;2015-09-15_Labor_Ultraschallsensor.c: 136: time = TMR5H;
   307  00FEEC  CF50 F033          	movff	3920,_time	;volatile
   308  00FEF0  6A34               	clrf	_time+1,c
   309                           
   310                           ;2015-09-15_Labor_Ultraschallsensor.c: 137: time <<= 8;
   311  00FEF2  5033               	movf	_time,w,c
   312  00FEF4  6E34               	movwf	_time+1,c
   313  00FEF6  6A33               	clrf	_time,c
   314                           
   315                           ;2015-09-15_Labor_Ultraschallsensor.c: 138: time |= TMR5L;
   316  00FEF8  010F               	movlb	15	; () banked
   317  00FEFA  514F               	movf	79,w,b	;volatile
   318  00FEFC  1233               	iorwf	_time,f,c
   319                           
   320                           ; BSR set to: 15
   321                           ;2015-09-15_Labor_Ultraschallsensor.c: 139: TMR5L = 0;
   322  00FEFE  0E00               	movlw	0
   323  00FF00  010F               	movlb	15	; () banked
   324  00FF02  6F4F               	movwf	79,b	;volatile
   325                           
   326                           ; BSR set to: 15
   327                           ;2015-09-15_Labor_Ultraschallsensor.c: 140: TMR5H = 0;
   328  00FF04  0E00               	movlw	0
   329  00FF06  010F               	movlb	15	; () banked
   330  00FF08  6F50               	movwf	80,b	;volatile
   331                           
   332                           ; BSR set to: 15
   333                           ;2015-09-15_Labor_Ultraschallsensor.c: 141: distance = 0;
   334  00FF0A  0E00               	movlw	0
   335  00FF0C  6E30               	movwf	_distance,c
   336  00FF0E  0E00               	movlw	0
   337  00FF10  6E31               	movwf	_distance+1,c
   338  00FF12  0E00               	movlw	0
   339  00FF14  6E32               	movwf	_distance+2,c
   340                           
   341                           ; BSR set to: 15
   342                           ;2015-09-15_Labor_Ultraschallsensor.c: 142: distance = ((0.000343 * time) / 2);
   343  00FF16  0ED5               	movlw	213
   344  00FF18  6E0F               	movwf	___ftmul@f2,c
   345  00FF1A  0EB3               	movlw	179
   346  00FF1C  6E10               	movwf	___ftmul@f2+1,c
   347  00FF1E  0E39               	movlw	57
   348  00FF20  6E11               	movwf	___ftmul@f2+2,c
   349  00FF22  C033  F009         	movff	_time,___lwtoft@c
   350  00FF26  C034  F00A         	movff	_time+1,___lwtoft@c+1
   351  00FF2A  EC95  F07D         	call	___lwtoft	;wreg free
   352  00FF2E  C009  F00C         	movff	?___lwtoft,___ftmul@f1
   353  00FF32  C00A  F00D         	movff	?___lwtoft+1,___ftmul@f1+1
   354  00FF36  C00B  F00E         	movff	?___lwtoft+2,___ftmul@f1+2
   355  00FF3A  ECF4  F07E         	call	___ftmul	;wreg free
   356  00FF3E  C00C  F01B         	movff	?___ftmul,___ftdiv@f1
   357  00FF42  C00D  F01C         	movff	?___ftmul+1,___ftdiv@f1+1
   358  00FF46  C00E  F01D         	movff	?___ftmul+2,___ftdiv@f1+2
   359  00FF4A  0E00               	movlw	0
   360  00FF4C  6E1E               	movwf	___ftdiv@f2,c
   361  00FF4E  0E00               	movlw	0
   362  00FF50  6E1F               	movwf	___ftdiv@f2+1,c
   363  00FF52  0E40               	movlw	64
   364  00FF54  6E20               	movwf	___ftdiv@f2+2,c
   365  00FF56  EC81  F07E         	call	___ftdiv	;wreg free
   366  00FF5A  C01B  F030         	movff	?___ftdiv,_distance
   367  00FF5E  C01C  F031         	movff	?___ftdiv+1,_distance+1
   368  00FF62  C01D  F032         	movff	?___ftdiv+2,_distance+2
   369                           
   370                           ;2015-09-15_Labor_Ultraschallsensor.c: 143: PORTBbits.RB3 = 1;
   371  00FF66  8681               	bsf	3969,3,c	;volatile
   372                           
   373                           ;2015-09-15_Labor_Ultraschallsensor.c: 144: if(distance < 0.2) {
   374  00FF68  C030  F001         	movff	_distance,___ftge@ff1
   375  00FF6C  C031  F002         	movff	_distance+1,___ftge@ff1+1
   376  00FF70  C032  F003         	movff	_distance+2,___ftge@ff1+2
   377  00FF74  0ECD               	movlw	205
   378  00FF76  6E04               	movwf	___ftge@ff2,c
   379  00FF78  0E4C               	movlw	76
   380  00FF7A  6E05               	movwf	___ftge@ff2+1,c
   381  00FF7C  0E3E               	movlw	62
   382  00FF7E  6E06               	movwf	___ftge@ff2+2,c
   383  00FF80  ECE2  F07D         	call	___ftge	;wreg free
   384  00FF84  B0D8               	btfsc	status,0,c
   385  00FF86  D002               	goto	l1082
   386                           
   387                           ;2015-09-15_Labor_Ultraschallsensor.c: 145: PORTBbits.RB2 = 1;
   388  00FF88  8481               	bsf	3969,2,c	;volatile
   389                           
   390                           ;2015-09-15_Labor_Ultraschallsensor.c: 146: }
   391  00FF8A  D030               	goto	l1092
   392  00FF8C                     l1082:
   393                           
   394                           ;2015-09-15_Labor_Ultraschallsensor.c: 147: else if(distance >= 0.2 && distance < 0.5) {
   395  00FF8C  C030  F001         	movff	_distance,___ftge@ff1
   396  00FF90  C031  F002         	movff	_distance+1,___ftge@ff1+1
   397  00FF94  C032  F003         	movff	_distance+2,___ftge@ff1+2
   398  00FF98  0ECD               	movlw	205
   399  00FF9A  6E04               	movwf	___ftge@ff2,c
   400  00FF9C  0E4C               	movlw	76
   401  00FF9E  6E05               	movwf	___ftge@ff2+1,c
   402  00FFA0  0E3E               	movlw	62
   403  00FFA2  6E06               	movwf	___ftge@ff2+2,c
   404  00FFA4  ECE2  F07D         	call	___ftge	;wreg free
   405  00FFA8  A0D8               	btfss	status,0,c
   406  00FFAA  D010               	goto	l1088
   407  00FFAC  C030  F001         	movff	_distance,___ftge@ff1
   408  00FFB0  C031  F002         	movff	_distance+1,___ftge@ff1+1
   409  00FFB4  C032  F003         	movff	_distance+2,___ftge@ff1+2
   410  00FFB8  0E00               	movlw	0
   411  00FFBA  6E04               	movwf	___ftge@ff2,c
   412  00FFBC  0E00               	movlw	0
   413  00FFBE  6E05               	movwf	___ftge@ff2+1,c
   414  00FFC0  0E3F               	movlw	63
   415  00FFC2  6E06               	movwf	___ftge@ff2+2,c
   416  00FFC4  ECE2  F07D         	call	___ftge	;wreg free
   417  00FFC8  A0D8               	btfss	status,0,c
   418  00FFCA  D00F               	goto	l1090
   419  00FFCC                     l1088:
   420                           
   421                           ;2015-09-15_Labor_Ultraschallsensor.c: 150: else if(distance >= 0.5) {
   422  00FFCC  C030  F001         	movff	_distance,___ftge@ff1
   423  00FFD0  C031  F002         	movff	_distance+1,___ftge@ff1+1
   424  00FFD4  C032  F003         	movff	_distance+2,___ftge@ff1+2
   425  00FFD8  0E00               	movlw	0
   426  00FFDA  6E04               	movwf	___ftge@ff2,c
   427  00FFDC  0E00               	movlw	0
   428  00FFDE  6E05               	movwf	___ftge@ff2+1,c
   429  00FFE0  0E3F               	movlw	63
   430  00FFE2  6E06               	movwf	___ftge@ff2+2,c
   431  00FFE4  ECE2  F07D         	call	___ftge	;wreg free
   432  00FFE8  B0D8               	btfsc	status,0,c
   433  00FFEA                     l1090:
   434                           
   435                           ;2015-09-15_Labor_Ultraschallsensor.c: 151: PORTBbits.RB2 = 0;
   436  00FFEA  9481               	bcf	3969,2,c	;volatile
   437  00FFEC                     l1092:
   438                           
   439                           ;2015-09-15_Labor_Ultraschallsensor.c: 152: }
   440                           ;2015-09-15_Labor_Ultraschallsensor.c: 153: _delay((unsigned long)((20)*(4000000/4000.0)
      +                          ));
   441  00FFEC  0E1A               	movlw	26
   442  00FFEE  6E2A               	movwf	??_measure& (0+255),c
   443  00FFF0  0EF8               	movlw	248
   444  00FFF2                     u557:
   445  00FFF2  2EE8               	decfsz	wreg,f,c
   446  00FFF4  D7FE               	goto	u557
   447  00FFF6  2E2A               	decfsz	??_measure& (0+255),f,c
   448  00FFF8  D7FC               	goto	u557
   449  00FFFA  D000               	nop2	
   450                           
   451                           ;2015-09-15_Labor_Ultraschallsensor.c: 154: __nop();
   452  00FFFC  F000               	nop	
   453  00FFFE  0012               	return		;funcret
   454  010000                     __end_of_measure:
   455                           	opt stack 0
   456                           wreg	equ	0xFE8
   457                           status	equ	0xFD8
   458                           
   459 ;; *************** function ___lwtoft *****************
   460 ;; Defined at:
   461 ;;		line 28 in file "C:\Program Files (x86)\Microchip\xc8\v1.35\sources\common\lwtoft.c"
   462 ;; Parameters:    Size  Location     Type
   463 ;;  c               2    8[COMRAM] unsigned int 
   464 ;; Auto vars:     Size  Location     Type
   465 ;;		None
   466 ;; Return value:  Size  Location     Type
   467 ;;                  3    8[COMRAM] float 
   468 ;; Registers used:
   469 ;;		wreg, status,2, status,0, cstack
   470 ;; Tracked objects:
   471 ;;		On entry : 0/0
   472 ;;		On exit  : 0/0
   473 ;;		Unchanged: 0/0
   474 ;; Data sizes:     COMRAM   BANK0   BANK1   BANK2   BANK3   BANK4   BANK5   BANK6   BANK7   BANK8   BANK9  BANK10  BANK1
      +1  BANK12  BANK13  BANK14  BANK15
   475 ;;      Params:         3       0       0       0       0       0       0       0       0       0       0       0       
      +0       0       0       0       0
   476 ;;      Locals:         0       0       0       0       0       0       0       0       0       0       0       0       
      +0       0       0       0       0
   477 ;;      Temps:          0       0       0       0       0       0       0       0       0       0       0       0       
      +0       0       0       0       0
   478 ;;      Totals:         3       0       0       0       0       0       0       0       0       0       0       0       
      +0       0       0       0       0
   479 ;;Total ram usage:        3 bytes
   480 ;; Hardware stack levels used:    1
   481 ;; Hardware stack levels required when called:    1
   482 ;; This function calls:
   483 ;;		___ftpack
   484 ;; This function is called by:
   485 ;;		_measure
   486 ;; This function uses a non-reentrant model
   487 ;;
   488                           
   489                           	psect	text2
   490  00FB2A                     __ptext2:
   491                           	opt stack 0
   492  00FB2A                     ___lwtoft:
   493                           	opt stack 28
   494                           
   495                           ;incstack = 0
   496  00FB2A  C009  F001         	movff	___lwtoft@c,___ftpack@arg
   497  00FB2E  C00A  F002         	movff	___lwtoft@c+1,___ftpack@arg+1
   498  00FB32  6A03               	clrf	___ftpack@arg+2,c
   499  00FB34  0E8E               	movlw	142
   500  00FB36  6E04               	movwf	___ftpack@exp,c
   501  00FB38  0E00               	movlw	0
   502  00FB3A  6E05               	movwf	___ftpack@sign,c
   503  00FB3C  EC2A  F07E         	call	___ftpack	;wreg free
   504  00FB40  C001  F009         	movff	?___ftpack,?___lwtoft
   505  00FB44  C002  F00A         	movff	?___ftpack+1,?___lwtoft+1
   506  00FB48  C003  F00B         	movff	?___ftpack+2,?___lwtoft+2
   507  00FB4C  0012               	return	
   508  00FB4E                     __end_of___lwtoft:
   509                           	opt stack 0
   510                           wreg	equ	0xFE8
   511                           status	equ	0xFD8
   512                           
   513 ;; *************** function ___ftmul *****************
   514 ;; Defined at:
   515 ;;		line 62 in file "C:\Program Files (x86)\Microchip\xc8\v1.35\sources\common\ftmul.c"
   516 ;; Parameters:    Size  Location     Type
   517 ;;  f1              3   11[COMRAM] float 
   518 ;;  f2              3   14[COMRAM] float 
   519 ;; Auto vars:     Size  Location     Type
   520 ;;  f3_as_produc    3   21[COMRAM] unsigned um
   521 ;;  sign            1   25[COMRAM] unsigned char 
   522 ;;  cntr            1   24[COMRAM] unsigned char 
   523 ;;  exp             1   20[COMRAM] unsigned char 
   524 ;; Return value:  Size  Location     Type
   525 ;;                  3   11[COMRAM] float 
   526 ;; Registers used:
   527 ;;		wreg, status,2, status,0, cstack
   528 ;; Tracked objects:
   529 ;;		On entry : 0/0
   530 ;;		On exit  : 0/0
   531 ;;		Unchanged: 0/0
   532 ;; Data sizes:     COMRAM   BANK0   BANK1   BANK2   BANK3   BANK4   BANK5   BANK6   BANK7   BANK8   BANK9  BANK10  BANK1
      +1  BANK12  BANK13  BANK14  BANK15
   533 ;;      Params:         6       0       0       0       0       0       0       0       0       0       0       0       
      +0       0       0       0       0
   534 ;;      Locals:         6       0       0       0       0       0       0       0       0       0       0       0       
      +0       0       0       0       0
   535 ;;      Temps:          3       0       0       0       0       0       0       0       0       0       0       0       
      +0       0       0       0       0
   536 ;;      Totals:        15       0       0       0       0       0       0       0       0       0       0       0       
      +0       0       0       0       0
   537 ;;Total ram usage:       15 bytes
   538 ;; Hardware stack levels used:    1
   539 ;; Hardware stack levels required when called:    1
   540 ;; This function calls:
   541 ;;		___ftpack
   542 ;; This function is called by:
   543 ;;		_measure
   544 ;; This function uses a non-reentrant model
   545 ;;
   546                           
   547                           	psect	text3
   548  00FDE8                     __ptext3:
   549                           	opt stack 0
   550  00FDE8                     ___ftmul:
   551                           	opt stack 28
   552                           
   553                           ;incstack = 0
   554  00FDE8  C00E  F012         	movff	___ftmul@f1+2,??___ftmul
   555  00FDEC  6A13               	clrf	(??___ftmul+1)& (0+255),c
   556  00FDEE  6A14               	clrf	(??___ftmul+2)& (0+255),c
   557  00FDF0  340D               	rlcf	___ftmul@f1+1,w,c
   558  00FDF2  3612               	rlcf	??___ftmul& (0+255),f,c
   559  00FDF4  E301               	bnc	u411
   560  00FDF6  8013               	bsf	(??___ftmul+1)& (0+255),0,c
   561  00FDF8                     u411:
   562  00FDF8  5012               	movf	??___ftmul,w,c
   563  00FDFA  6E15               	movwf	___ftmul@exp,c
   564  00FDFC  5015               	movf	___ftmul@exp,w,c
   565  00FDFE  A4D8               	btfss	status,2,c
   566  00FE00  D007               	goto	l996
   567  00FE02  0E00               	movlw	0
   568  00FE04  6E0C               	movwf	?___ftmul,c
   569  00FE06  0E00               	movlw	0
   570  00FE08  6E0D               	movwf	?___ftmul+1,c
   571  00FE0A  0E00               	movlw	0
   572  00FE0C  6E0E               	movwf	?___ftmul+2,c
   573  00FE0E  0012               	return	
   574  00FE10                     l996:
   575  00FE10  C011  F012         	movff	___ftmul@f2+2,??___ftmul
   576  00FE14  6A13               	clrf	(??___ftmul+1)& (0+255),c
   577  00FE16  6A14               	clrf	(??___ftmul+2)& (0+255),c
   578  00FE18  3410               	rlcf	___ftmul@f2+1,w,c
   579  00FE1A  3612               	rlcf	??___ftmul& (0+255),f,c
   580  00FE1C  E301               	bnc	u431
   581  00FE1E  8013               	bsf	(??___ftmul+1)& (0+255),0,c
   582  00FE20                     u431:
   583  00FE20  5012               	movf	??___ftmul,w,c
   584  00FE22  6E1A               	movwf	___ftmul@sign,c
   585  00FE24  501A               	movf	___ftmul@sign,w,c
   586  00FE26  A4D8               	btfss	status,2,c
   587  00FE28  D007               	goto	l1002
   588  00FE2A  0E00               	movlw	0
   589  00FE2C  6E0C               	movwf	?___ftmul,c
   590  00FE2E  0E00               	movlw	0
   591  00FE30  6E0D               	movwf	?___ftmul+1,c
   592  00FE32  0E00               	movlw	0
   593  00FE34  6E0E               	movwf	?___ftmul+2,c
   594  00FE36  0012               	return	
   595  00FE38                     l1002:
   596  00FE38  501A               	movf	___ftmul@sign,w,c
   597  00FE3A  0F7B               	addlw	123
   598  00FE3C  2615               	addwf	___ftmul@exp,f,c
   599  00FE3E  C00E  F01A         	movff	___ftmul@f1+2,___ftmul@sign
   600  00FE42  5011               	movf	___ftmul@f2+2,w,c
   601  00FE44  1A1A               	xorwf	___ftmul@sign,f,c
   602  00FE46  0E80               	movlw	128
   603  00FE48  161A               	andwf	___ftmul@sign,f,c
   604  00FE4A  8E0D               	bsf	___ftmul@f1+1,7,c
   605  00FE4C  8E10               	bsf	___ftmul@f2+1,7,c
   606  00FE4E  0EFF               	movlw	255
   607  00FE50  160F               	andwf	___ftmul@f2,f,c
   608  00FE52  0EFF               	movlw	255
   609  00FE54  1610               	andwf	___ftmul@f2+1,f,c
   610  00FE56  0E00               	movlw	0
   611  00FE58  1611               	andwf	___ftmul@f2+2,f,c
   612  00FE5A  0E00               	movlw	0
   613  00FE5C  6E16               	movwf	___ftmul@f3_as_product,c
   614  00FE5E  0E00               	movlw	0
   615  00FE60  6E17               	movwf	___ftmul@f3_as_product+1,c
   616  00FE62  0E00               	movlw	0
   617  00FE64  6E18               	movwf	___ftmul@f3_as_product+2,c
   618  00FE66  0E07               	movlw	7
   619  00FE68  6E19               	movwf	___ftmul@cntr,c
   620  00FE6A                     l1016:
   621  00FE6A  A00C               	btfss	___ftmul@f1,0,c
   622  00FE6C  D006               	goto	l1020
   623  00FE6E  500F               	movf	___ftmul@f2,w,c
   624  00FE70  2616               	addwf	___ftmul@f3_as_product,f,c
   625  00FE72  5010               	movf	___ftmul@f2+1,w,c
   626  00FE74  2217               	addwfc	___ftmul@f3_as_product+1,f,c
   627  00FE76  5011               	movf	___ftmul@f2+2,w,c
   628  00FE78  2218               	addwfc	___ftmul@f3_as_product+2,f,c
   629  00FE7A                     l1020:
   630  00FE7A  90D8               	bcf	status,0,c
   631  00FE7C  320E               	rrcf	___ftmul@f1+2,f,c
   632  00FE7E  320D               	rrcf	___ftmul@f1+1,f,c
   633  00FE80  320C               	rrcf	___ftmul@f1,f,c
   634  00FE82  90D8               	bcf	status,0,c
   635  00FE84  360F               	rlcf	___ftmul@f2,f,c
   636  00FE86  3610               	rlcf	___ftmul@f2+1,f,c
   637  00FE88  3611               	rlcf	___ftmul@f2+2,f,c
   638  00FE8A  2E19               	decfsz	___ftmul@cntr,f,c
   639  00FE8C  D7EE               	goto	l1016
   640  00FE8E  0E09               	movlw	9
   641  00FE90  6E19               	movwf	___ftmul@cntr,c
   642  00FE92                     l1026:
   643  00FE92  A00C               	btfss	___ftmul@f1,0,c
   644  00FE94  D006               	goto	l1030
   645  00FE96  500F               	movf	___ftmul@f2,w,c
   646  00FE98  2616               	addwf	___ftmul@f3_as_product,f,c
   647  00FE9A  5010               	movf	___ftmul@f2+1,w,c
   648  00FE9C  2217               	addwfc	___ftmul@f3_as_product+1,f,c
   649  00FE9E  5011               	movf	___ftmul@f2+2,w,c
   650  00FEA0  2218               	addwfc	___ftmul@f3_as_product+2,f,c
   651  00FEA2                     l1030:
   652  00FEA2  90D8               	bcf	status,0,c
   653  00FEA4  320E               	rrcf	___ftmul@f1+2,f,c
   654  00FEA6  320D               	rrcf	___ftmul@f1+1,f,c
   655  00FEA8  320C               	rrcf	___ftmul@f1,f,c
   656  00FEAA  90D8               	bcf	status,0,c
   657  00FEAC  3218               	rrcf	___ftmul@f3_as_product+2,f,c
   658  00FEAE  3217               	rrcf	___ftmul@f3_as_product+1,f,c
   659  00FEB0  3216               	rrcf	___ftmul@f3_as_product,f,c
   660  00FEB2  2E19               	decfsz	___ftmul@cntr,f,c
   661  00FEB4  D7EE               	goto	l1026
   662  00FEB6  C016  F001         	movff	___ftmul@f3_as_product,___ftpack@arg
   663  00FEBA  C017  F002         	movff	___ftmul@f3_as_product+1,___ftpack@arg+1
   664  00FEBE  C018  F003         	movff	___ftmul@f3_as_product+2,___ftpack@arg+2
   665  00FEC2  C015  F004         	movff	___ftmul@exp,___ftpack@exp
   666  00FEC6  C01A  F005         	movff	___ftmul@sign,___ftpack@sign
   667  00FECA  EC2A  F07E         	call	___ftpack	;wreg free
   668  00FECE  C001  F00C         	movff	?___ftpack,?___ftmul
   669  00FED2  C002  F00D         	movff	?___ftpack+1,?___ftmul+1
   670  00FED6  C003  F00E         	movff	?___ftpack+2,?___ftmul+2
   671  00FEDA  0012               	return	
   672  00FEDC                     __end_of___ftmul:
   673                           	opt stack 0
   674                           wreg	equ	0xFE8
   675                           status	equ	0xFD8
   676                           
   677 ;; *************** function ___ftge *****************
   678 ;; Defined at:
   679 ;;		line 4 in file "C:\Program Files (x86)\Microchip\xc8\v1.35\sources\common\ftge.c"
   680 ;; Parameters:    Size  Location     Type
   681 ;;  ff1             3    0[COMRAM] float 
   682 ;;  ff2             3    3[COMRAM] float 
   683 ;; Auto vars:     Size  Location     Type
   684 ;;		None
   685 ;; Return value:  Size  Location     Type
   686 ;;		None               void
   687 ;; Registers used:
   688 ;;		wreg, status,2, status,0
   689 ;; Tracked objects:
   690 ;;		On entry : 0/0
   691 ;;		On exit  : 0/0
   692 ;;		Unchanged: 0/0
   693 ;; Data sizes:     COMRAM   BANK0   BANK1   BANK2   BANK3   BANK4   BANK5   BANK6   BANK7   BANK8   BANK9  BANK10  BANK1
      +1  BANK12  BANK13  BANK14  BANK15
   694 ;;      Params:         6       0       0       0       0       0       0       0       0       0       0       0       
      +0       0       0       0       0
   695 ;;      Locals:         0       0       0       0       0       0       0       0       0       0       0       0       
      +0       0       0       0       0
   696 ;;      Temps:          3       0       0       0       0       0       0       0       0       0       0       0       
      +0       0       0       0       0
   697 ;;      Totals:         9       0       0       0       0       0       0       0       0       0       0       0       
      +0       0       0       0       0
   698 ;;Total ram usage:        9 bytes
   699 ;; Hardware stack levels used:    1
   700 ;; This function calls:
   701 ;;		Nothing
   702 ;; This function is called by:
   703 ;;		_measure
   704 ;; This function uses a non-reentrant model
   705 ;;
   706                           
   707                           	psect	text4
   708  00FBC4                     __ptext4:
   709                           	opt stack 0
   710  00FBC4                     ___ftge:
   711                           	opt stack 29
   712                           
   713                           ;incstack = 0
   714  00FBC4  AE03               	btfss	___ftge@ff1+2,7,c
   715  00FBC6  D016               	goto	l1042
   716  00FBC8  C001  F007         	movff	___ftge@ff1,??___ftge
   717  00FBCC  C002  F008         	movff	___ftge@ff1+1,??___ftge+1
   718  00FBD0  C003  F009         	movff	___ftge@ff1+2,??___ftge+2
   719  00FBD4  1E07               	comf	??___ftge,f,c
   720  00FBD6  1E08               	comf	??___ftge+1,f,c
   721  00FBD8  1E09               	comf	??___ftge+2,f,c
   722  00FBDA  2A07               	incf	??___ftge,f,c
   723  00FBDC  0E00               	movlw	0
   724  00FBDE  2208               	addwfc	??___ftge+1,f,c
   725  00FBE0  2209               	addwfc	??___ftge+2,f,c
   726  00FBE2  0E00               	movlw	0
   727  00FBE4  2407               	addwf	??___ftge,w,c
   728  00FBE6  6E01               	movwf	___ftge@ff1,c
   729  00FBE8  0E00               	movlw	0
   730  00FBEA  2008               	addwfc	??___ftge+1,w,c
   731  00FBEC  6E02               	movwf	___ftge@ff1+1,c
   732  00FBEE  0E80               	movlw	128
   733  00FBF0  2009               	addwfc	??___ftge+2,w,c
   734  00FBF2  6E03               	movwf	___ftge@ff1+2,c
   735  00FBF4                     l1042:
   736  00FBF4  AE06               	btfss	___ftge@ff2+2,7,c
   737  00FBF6  D016               	goto	l1046
   738  00FBF8  C004  F007         	movff	___ftge@ff2,??___ftge
   739  00FBFC  C005  F008         	movff	___ftge@ff2+1,??___ftge+1
   740  00FC00  C006  F009         	movff	___ftge@ff2+2,??___ftge+2
   741  00FC04  1E07               	comf	??___ftge,f,c
   742  00FC06  1E08               	comf	??___ftge+1,f,c
   743  00FC08  1E09               	comf	??___ftge+2,f,c
   744  00FC0A  2A07               	incf	??___ftge,f,c
   745  00FC0C  0E00               	movlw	0
   746  00FC0E  2208               	addwfc	??___ftge+1,f,c
   747  00FC10  2209               	addwfc	??___ftge+2,f,c
   748  00FC12  0E00               	movlw	0
   749  00FC14  2407               	addwf	??___ftge,w,c
   750  00FC16  6E04               	movwf	___ftge@ff2,c
   751  00FC18  0E00               	movlw	0
   752  00FC1A  2008               	addwfc	??___ftge+1,w,c
   753  00FC1C  6E05               	movwf	___ftge@ff2+1,c
   754  00FC1E  0E80               	movlw	128
   755  00FC20  2009               	addwfc	??___ftge+2,w,c
   756  00FC22  6E06               	movwf	___ftge@ff2+2,c
   757  00FC24                     l1046:
   758  00FC24  0E00               	movlw	0
   759  00FC26  1A01               	xorwf	___ftge@ff1,f,c
   760  00FC28  0E00               	movlw	0
   761  00FC2A  1A02               	xorwf	___ftge@ff1+1,f,c
   762  00FC2C  0E80               	movlw	128
   763  00FC2E  1A03               	xorwf	___ftge@ff1+2,f,c
   764  00FC30  0E00               	movlw	0
   765  00FC32  1A04               	xorwf	___ftge@ff2,f,c
   766  00FC34  0E00               	movlw	0
   767  00FC36  1A05               	xorwf	___ftge@ff2+1,f,c
   768  00FC38  0E80               	movlw	128
   769  00FC3A  1A06               	xorwf	___ftge@ff2+2,f,c
   770  00FC3C  5004               	movf	___ftge@ff2,w,c
   771  00FC3E  5C01               	subwf	___ftge@ff1,w,c
   772  00FC40  5005               	movf	___ftge@ff2+1,w,c
   773  00FC42  5802               	subwfb	___ftge@ff1+1,w,c
   774  00FC44  5006               	movf	___ftge@ff2+2,w,c
   775  00FC46  5803               	subwfb	___ftge@ff1+2,w,c
   776  00FC48  B0D8               	btfsc	status,0,c
   777  00FC4A  D002               	goto	l1052
   778  00FC4C  90D8               	bcf	status,0,c
   779  00FC4E  0012               	return	
   780  00FC50                     l1052:
   781  00FC50  80D8               	bsf	status,0,c
   782  00FC52  0012               	return	
   783  00FC54                     __end_of___ftge:
   784                           	opt stack 0
   785                           wreg	equ	0xFE8
   786                           status	equ	0xFD8
   787                           
   788 ;; *************** function ___ftdiv *****************
   789 ;; Defined at:
   790 ;;		line 54 in file "C:\Program Files (x86)\Microchip\xc8\v1.35\sources\common\ftdiv.c"
   791 ;; Parameters:    Size  Location     Type
   792 ;;  f1              3   26[COMRAM] float 
   793 ;;  f2              3   29[COMRAM] float 
   794 ;; Auto vars:     Size  Location     Type
   795 ;;  f3              3   36[COMRAM] float 
   796 ;;  sign            1   40[COMRAM] unsigned char 
   797 ;;  exp             1   39[COMRAM] unsigned char 
   798 ;;  cntr            1   35[COMRAM] unsigned char 
   799 ;; Return value:  Size  Location     Type
   800 ;;                  3   26[COMRAM] float 
   801 ;; Registers used:
   802 ;;		wreg, status,2, status,0, cstack
   803 ;; Tracked objects:
   804 ;;		On entry : 0/0
   805 ;;		On exit  : 0/0
   806 ;;		Unchanged: 0/0
   807 ;; Data sizes:     COMRAM   BANK0   BANK1   BANK2   BANK3   BANK4   BANK5   BANK6   BANK7   BANK8   BANK9  BANK10  BANK1
      +1  BANK12  BANK13  BANK14  BANK15
   808 ;;      Params:         6       0       0       0       0       0       0       0       0       0       0       0       
      +0       0       0       0       0
   809 ;;      Locals:         6       0       0       0       0       0       0       0       0       0       0       0       
      +0       0       0       0       0
   810 ;;      Temps:          3       0       0       0       0       0       0       0       0       0       0       0       
      +0       0       0       0       0
   811 ;;      Totals:        15       0       0       0       0       0       0       0       0       0       0       0       
      +0       0       0       0       0
   812 ;;Total ram usage:       15 bytes
   813 ;; Hardware stack levels used:    1
   814 ;; Hardware stack levels required when called:    1
   815 ;; This function calls:
   816 ;;		___ftpack
   817 ;; This function is called by:
   818 ;;		_measure
   819 ;; This function uses a non-reentrant model
   820 ;;
   821                           
   822                           	psect	text5
   823  00FD02                     __ptext5:
   824                           	opt stack 0
   825  00FD02                     ___ftdiv:
   826                           	opt stack 28
   827                           
   828                           ;incstack = 0
   829  00FD02  C01D  F021         	movff	___ftdiv@f1+2,??___ftdiv
   830  00FD06  6A22               	clrf	(??___ftdiv+1)& (0+255),c
   831  00FD08  6A23               	clrf	(??___ftdiv+2)& (0+255),c
   832  00FD0A  341C               	rlcf	___ftdiv@f1+1,w,c
   833  00FD0C  3621               	rlcf	??___ftdiv& (0+255),f,c
   834  00FD0E  E301               	bnc	u361
   835  00FD10  8022               	bsf	(??___ftdiv+1)& (0+255),0,c
   836  00FD12                     u361:
   837  00FD12  5021               	movf	??___ftdiv,w,c
   838  00FD14  6E28               	movwf	___ftdiv@exp,c
   839  00FD16  5028               	movf	___ftdiv@exp,w,c
   840  00FD18  A4D8               	btfss	status,2,c
   841  00FD1A  D007               	goto	l950
   842  00FD1C  0E00               	movlw	0
   843  00FD1E  6E1B               	movwf	?___ftdiv,c
   844  00FD20  0E00               	movlw	0
   845  00FD22  6E1C               	movwf	?___ftdiv+1,c
   846  00FD24  0E00               	movlw	0
   847  00FD26  6E1D               	movwf	?___ftdiv+2,c
   848  00FD28  0012               	return	
   849  00FD2A                     l950:
   850  00FD2A  C020  F021         	movff	___ftdiv@f2+2,??___ftdiv
   851  00FD2E  6A22               	clrf	(??___ftdiv+1)& (0+255),c
   852  00FD30  6A23               	clrf	(??___ftdiv+2)& (0+255),c
   853  00FD32  341F               	rlcf	___ftdiv@f2+1,w,c
   854  00FD34  3621               	rlcf	??___ftdiv& (0+255),f,c
   855  00FD36  E301               	bnc	u381
   856  00FD38  8022               	bsf	(??___ftdiv+1)& (0+255),0,c
   857  00FD3A                     u381:
   858  00FD3A  5021               	movf	??___ftdiv,w,c
   859  00FD3C  6E29               	movwf	___ftdiv@sign,c
   860  00FD3E  5029               	movf	___ftdiv@sign,w,c
   861  00FD40  A4D8               	btfss	status,2,c
   862  00FD42  D007               	goto	l956
   863  00FD44  0E00               	movlw	0
   864  00FD46  6E1B               	movwf	?___ftdiv,c
   865  00FD48  0E00               	movlw	0
   866  00FD4A  6E1C               	movwf	?___ftdiv+1,c
   867  00FD4C  0E00               	movlw	0
   868  00FD4E  6E1D               	movwf	?___ftdiv+2,c
   869  00FD50  0012               	return	
   870  00FD52                     l956:
   871  00FD52  0E00               	movlw	0
   872  00FD54  6E25               	movwf	___ftdiv@f3,c
   873  00FD56  0E00               	movlw	0
   874  00FD58  6E26               	movwf	___ftdiv@f3+1,c
   875  00FD5A  0E00               	movlw	0
   876  00FD5C  6E27               	movwf	___ftdiv@f3+2,c
   877  00FD5E  5029               	movf	___ftdiv@sign,w,c
   878  00FD60  0F89               	addlw	137
   879  00FD62  5E28               	subwf	___ftdiv@exp,f,c
   880  00FD64  C01D  F029         	movff	___ftdiv@f1+2,___ftdiv@sign
   881  00FD68  5020               	movf	___ftdiv@f2+2,w,c
   882  00FD6A  1A29               	xorwf	___ftdiv@sign,f,c
   883  00FD6C  0E80               	movlw	128
   884  00FD6E  1629               	andwf	___ftdiv@sign,f,c
   885  00FD70  8E1C               	bsf	___ftdiv@f1+1,7,c
   886  00FD72  0EFF               	movlw	255
   887  00FD74  161B               	andwf	___ftdiv@f1,f,c
   888  00FD76  0EFF               	movlw	255
   889  00FD78  161C               	andwf	___ftdiv@f1+1,f,c
   890  00FD7A  0E00               	movlw	0
   891  00FD7C  161D               	andwf	___ftdiv@f1+2,f,c
   892  00FD7E  8E1F               	bsf	___ftdiv@f2+1,7,c
   893  00FD80  0EFF               	movlw	255
   894  00FD82  161E               	andwf	___ftdiv@f2,f,c
   895  00FD84  0EFF               	movlw	255
   896  00FD86  161F               	andwf	___ftdiv@f2+1,f,c
   897  00FD88  0E00               	movlw	0
   898  00FD8A  1620               	andwf	___ftdiv@f2+2,f,c
   899  00FD8C  0E18               	movlw	24
   900  00FD8E  6E24               	movwf	___ftdiv@cntr,c
   901  00FD90                     l976:
   902  00FD90  90D8               	bcf	status,0,c
   903  00FD92  3625               	rlcf	___ftdiv@f3,f,c
   904  00FD94  3626               	rlcf	___ftdiv@f3+1,f,c
   905  00FD96  3627               	rlcf	___ftdiv@f3+2,f,c
   906  00FD98  501E               	movf	___ftdiv@f2,w,c
   907  00FD9A  5C1B               	subwf	___ftdiv@f1,w,c
   908  00FD9C  501F               	movf	___ftdiv@f2+1,w,c
   909  00FD9E  581C               	subwfb	___ftdiv@f1+1,w,c
   910  00FDA0  5020               	movf	___ftdiv@f2+2,w,c
   911  00FDA2  581D               	subwfb	___ftdiv@f1+2,w,c
   912  00FDA4  A0D8               	btfss	status,0,c
   913  00FDA6  D007               	goto	l355
   914  00FDA8  501E               	movf	___ftdiv@f2,w,c
   915  00FDAA  5E1B               	subwf	___ftdiv@f1,f,c
   916  00FDAC  501F               	movf	___ftdiv@f2+1,w,c
   917  00FDAE  5A1C               	subwfb	___ftdiv@f1+1,f,c
   918  00FDB0  5020               	movf	___ftdiv@f2+2,w,c
   919  00FDB2  5A1D               	subwfb	___ftdiv@f1+2,f,c
   920  00FDB4  8025               	bsf	___ftdiv@f3,0,c
   921  00FDB6                     l355:
   922  00FDB6  90D8               	bcf	status,0,c
   923  00FDB8  361B               	rlcf	___ftdiv@f1,f,c
   924  00FDBA  361C               	rlcf	___ftdiv@f1+1,f,c
   925  00FDBC  361D               	rlcf	___ftdiv@f1+2,f,c
   926  00FDBE  2E24               	decfsz	___ftdiv@cntr,f,c
   927  00FDC0  D7E7               	goto	l976
   928  00FDC2  C025  F001         	movff	___ftdiv@f3,___ftpack@arg
   929  00FDC6  C026  F002         	movff	___ftdiv@f3+1,___ftpack@arg+1
   930  00FDCA  C027  F003         	movff	___ftdiv@f3+2,___ftpack@arg+2
   931  00FDCE  C028  F004         	movff	___ftdiv@exp,___ftpack@exp
   932  00FDD2  C029  F005         	movff	___ftdiv@sign,___ftpack@sign
   933  00FDD6  EC2A  F07E         	call	___ftpack	;wreg free
   934  00FDDA  C001  F01B         	movff	?___ftpack,?___ftdiv
   935  00FDDE  C002  F01C         	movff	?___ftpack+1,?___ftdiv+1
   936  00FDE2  C003  F01D         	movff	?___ftpack+2,?___ftdiv+2
   937  00FDE6  0012               	return	
   938  00FDE8                     __end_of___ftdiv:
   939                           	opt stack 0
   940                           wreg	equ	0xFE8
   941                           status	equ	0xFD8
   942                           
   943 ;; *************** function ___ftpack *****************
   944 ;; Defined at:
   945 ;;		line 62 in file "C:\Program Files (x86)\Microchip\xc8\v1.35\sources\common\float.c"
   946 ;; Parameters:    Size  Location     Type
   947 ;;  arg             3    0[COMRAM] unsigned um
   948 ;;  exp             1    3[COMRAM] unsigned char 
   949 ;;  sign            1    4[COMRAM] unsigned char 
   950 ;; Auto vars:     Size  Location     Type
   951 ;;		None
   952 ;; Return value:  Size  Location     Type
   953 ;;                  3    0[COMRAM] float 
   954 ;; Registers used:
   955 ;;		wreg, status,2, status,0
   956 ;; Tracked objects:
   957 ;;		On entry : 0/0
   958 ;;		On exit  : 0/0
   959 ;;		Unchanged: 0/0
   960 ;; Data sizes:     COMRAM   BANK0   BANK1   BANK2   BANK3   BANK4   BANK5   BANK6   BANK7   BANK8   BANK9  BANK10  BANK1
      +1  BANK12  BANK13  BANK14  BANK15
   961 ;;      Params:         5       0       0       0       0       0       0       0       0       0       0       0       
      +0       0       0       0       0
   962 ;;      Locals:         0       0       0       0       0       0       0       0       0       0       0       0       
      +0       0       0       0       0
   963 ;;      Temps:          3       0       0       0       0       0       0       0       0       0       0       0       
      +0       0       0       0       0
   964 ;;      Totals:         8       0       0       0       0       0       0       0       0       0       0       0       
      +0       0       0       0       0
   965 ;;Total ram usage:        8 bytes
   966 ;; Hardware stack levels used:    1
   967 ;; This function calls:
   968 ;;		Nothing
   969 ;; This function is called by:
   970 ;;		___ftdiv
   971 ;;		___ftmul
   972 ;;		___lwtoft
   973 ;; This function uses a non-reentrant model
   974 ;;
   975                           
   976                           	psect	text6
   977  00FC54                     __ptext6:
   978                           	opt stack 0
   979  00FC54                     ___ftpack:
   980                           	opt stack 28
   981                           
   982                           ;incstack = 0
   983  00FC54  5004               	movf	___ftpack@exp,w,c
   984  00FC56  B4D8               	btfsc	status,2,c
   985  00FC58  D005               	goto	l912
   986  00FC5A  5001               	movf	___ftpack@arg,w,c
   987  00FC5C  1002               	iorwf	___ftpack@arg+1,w,c
   988  00FC5E  1003               	iorwf	___ftpack@arg+2,w,c
   989  00FC60  A4D8               	btfss	status,2,c
   990  00FC62  D00C               	goto	l918
   991  00FC64                     l912:
   992  00FC64  0E00               	movlw	0
   993  00FC66  6E01               	movwf	?___ftpack,c
   994  00FC68  0E00               	movlw	0
   995  00FC6A  6E02               	movwf	?___ftpack+1,c
   996  00FC6C  0E00               	movlw	0
   997  00FC6E  6E03               	movwf	?___ftpack+2,c
   998  00FC70  0012               	return	
   999  00FC72                     l916:
  1000  00FC72  2A04               	incf	___ftpack@exp,f,c
  1001  00FC74  90D8               	bcf	status,0,c
  1002  00FC76  3203               	rrcf	___ftpack@arg+2,f,c
  1003  00FC78  3202               	rrcf	___ftpack@arg+1,f,c
  1004  00FC7A  3201               	rrcf	___ftpack@arg,f,c
  1005  00FC7C                     l918:
  1006  00FC7C  0E00               	movlw	0
  1007  00FC7E  1401               	andwf	___ftpack@arg,w,c
  1008  00FC80  6E06               	movwf	??___ftpack& (0+255),c
  1009  00FC82  0E00               	movlw	0
  1010  00FC84  1402               	andwf	___ftpack@arg+1,w,c
  1011  00FC86  6E07               	movwf	(??___ftpack+1)& (0+255),c
  1012  00FC88  0EFE               	movlw	254
  1013  00FC8A  1403               	andwf	___ftpack@arg+2,w,c
  1014  00FC8C  6E08               	movwf	(??___ftpack+2)& (0+255),c
  1015  00FC8E  5006               	movf	??___ftpack,w,c
  1016  00FC90  1007               	iorwf	??___ftpack+1,w,c
  1017  00FC92  1008               	iorwf	??___ftpack+2,w,c
  1018  00FC94  B4D8               	btfsc	status,2,c
  1019  00FC96  D00C               	goto	l924
  1020  00FC98  D7EC               	goto	l916
  1021  00FC9A                     l920:
  1022  00FC9A  2A04               	incf	___ftpack@exp,f,c
  1023  00FC9C  0E01               	movlw	1
  1024  00FC9E  2601               	addwf	___ftpack@arg,f,c
  1025  00FCA0  0E00               	movlw	0
  1026  00FCA2  2202               	addwfc	___ftpack@arg+1,f,c
  1027  00FCA4  0E00               	movlw	0
  1028  00FCA6  2203               	addwfc	___ftpack@arg+2,f,c
  1029  00FCA8  90D8               	bcf	status,0,c
  1030  00FCAA  3203               	rrcf	___ftpack@arg+2,f,c
  1031  00FCAC  3202               	rrcf	___ftpack@arg+1,f,c
  1032  00FCAE  3201               	rrcf	___ftpack@arg,f,c
  1033  00FCB0                     l924:
  1034  00FCB0  0E00               	movlw	0
  1035  00FCB2  1401               	andwf	___ftpack@arg,w,c
  1036  00FCB4  6E06               	movwf	??___ftpack& (0+255),c
  1037  00FCB6  0E00               	movlw	0
  1038  00FCB8  1402               	andwf	___ftpack@arg+1,w,c
  1039  00FCBA  6E07               	movwf	(??___ftpack+1)& (0+255),c
  1040  00FCBC  0EFF               	movlw	255
  1041  00FCBE  1403               	andwf	___ftpack@arg+2,w,c
  1042  00FCC0  6E08               	movwf	(??___ftpack+2)& (0+255),c
  1043  00FCC2  5006               	movf	??___ftpack,w,c
  1044  00FCC4  1007               	iorwf	??___ftpack+1,w,c
  1045  00FCC6  1008               	iorwf	??___ftpack+2,w,c
  1046  00FCC8  B4D8               	btfsc	status,2,c
  1047  00FCCA  D006               	goto	l928
  1048  00FCCC  D7E6               	goto	l920
  1049  00FCCE                     l926:
  1050  00FCCE  0604               	decf	___ftpack@exp,f,c
  1051  00FCD0  90D8               	bcf	status,0,c
  1052  00FCD2  3601               	rlcf	___ftpack@arg,f,c
  1053  00FCD4  3602               	rlcf	___ftpack@arg+1,f,c
  1054  00FCD6  3603               	rlcf	___ftpack@arg+2,f,c
  1055  00FCD8                     l928:
  1056  00FCD8  BE02               	btfsc	___ftpack@arg+1,7,c
  1057  00FCDA  D003               	goto	l297
  1058  00FCDC  0E02               	movlw	2
  1059  00FCDE  6004               	cpfslt	___ftpack@exp,c
  1060  00FCE0  D7F6               	goto	l926
  1061  00FCE2                     l297:
  1062  00FCE2  A004               	btfss	___ftpack@exp,0,c
  1063  00FCE4  9E02               	bcf	___ftpack@arg+1,7,c
  1064  00FCE6  90D8               	bcf	status,0,c
  1065  00FCE8  3204               	rrcf	___ftpack@exp,f,c
  1066  00FCEA  5004               	movf	___ftpack@exp,w,c
  1067  00FCEC  1203               	iorwf	___ftpack@arg+2,f,c
  1068  00FCEE  5005               	movf	___ftpack@sign,w,c
  1069  00FCF0  A4D8               	btfss	status,2,c
  1070  00FCF2  8E03               	bsf	___ftpack@arg+2,7,c
  1071  00FCF4  C001  F001         	movff	___ftpack@arg,?___ftpack
  1072  00FCF8  C002  F002         	movff	___ftpack@arg+1,?___ftpack+1
  1073  00FCFC  C003  F003         	movff	___ftpack@arg+2,?___ftpack+2
  1074  00FD00  0012               	return	
  1075  00FD02                     __end_of___ftpack:
  1076                           	opt stack 0
  1077                           wreg	equ	0xFE8
  1078                           status	equ	0xFD8
  1079                           
  1080 ;; *************** function _init *****************
  1081 ;; Defined at:
  1082 ;;		line 97 in file "2015-09-15_Labor_Ultraschallsensor.c"
  1083 ;; Parameters:    Size  Location     Type
  1084 ;;		None
  1085 ;; Auto vars:     Size  Location     Type
  1086 ;;		None
  1087 ;; Return value:  Size  Location     Type
  1088 ;;		None               void
  1089 ;; Registers used:
  1090 ;;		wreg, status,2
  1091 ;; Tracked objects:
  1092 ;;		On entry : 0/0
  1093 ;;		On exit  : 0/0
  1094 ;;		Unchanged: 0/0
  1095 ;; Data sizes:     COMRAM   BANK0   BANK1   BANK2   BANK3   BANK4   BANK5   BANK6   BANK7   BANK8   BANK9  BANK10  BANK1
      +1  BANK12  BANK13  BANK14  BANK15
  1096 ;;      Params:         0       0       0       0       0       0       0       0       0       0       0       0       
      +0       0       0       0       0
  1097 ;;      Locals:         0       0       0       0       0       0       0       0       0       0       0       0       
      +0       0       0       0       0
  1098 ;;      Temps:          0       0       0       0       0       0       0       0       0       0       0       0       
      +0       0       0       0       0
  1099 ;;      Totals:         0       0       0       0       0       0       0       0       0       0       0       0       
      +0       0       0       0       0
  1100 ;;Total ram usage:        0 bytes
  1101 ;; Hardware stack levels used:    1
  1102 ;; This function calls:
  1103 ;;		Nothing
  1104 ;; This function is called by:
  1105 ;;		_main
  1106 ;; This function uses a non-reentrant model
  1107 ;;
  1108                           
  1109                           	psect	text7
  1110  00FB4E                     __ptext7:
  1111                           	opt stack 0
  1112  00FB4E                     _init:
  1113                           	opt stack 30
  1114                           
  1115                           ;2015-09-15_Labor_Ultraschallsensor.c: 98: PORTA = 0b00000000;
  1116                           
  1117                           ;incstack = 0
  1118  00FB4E  0E00               	movlw	0
  1119  00FB50  6E80               	movwf	3968,c	;volatile
  1120                           
  1121                           ;2015-09-15_Labor_Ultraschallsensor.c: 99: PORTB = 0b00001000;
  1122  00FB52  0E08               	movlw	8
  1123  00FB54  6E81               	movwf	3969,c	;volatile
  1124                           
  1125                           ;2015-09-15_Labor_Ultraschallsensor.c: 100: PORTC = 0b00000000;
  1126  00FB56  0E00               	movlw	0
  1127  00FB58  6E82               	movwf	3970,c	;volatile
  1128                           
  1129                           ;2015-09-15_Labor_Ultraschallsensor.c: 101: PORTD = 0b00001000;
  1130  00FB5A  0E08               	movlw	8
  1131  00FB5C  6E83               	movwf	3971,c	;volatile
  1132                           
  1133                           ;2015-09-15_Labor_Ultraschallsensor.c: 102: PORTE = 0b00000000;
  1134  00FB5E  0E00               	movlw	0
  1135  00FB60  6E84               	movwf	3972,c	;volatile
  1136                           
  1137                           ;2015-09-15_Labor_Ultraschallsensor.c: 103: TRISA = 0b00000000;
  1138  00FB62  0E00               	movlw	0
  1139  00FB64  6E92               	movwf	3986,c	;volatile
  1140                           
  1141                           ;2015-09-15_Labor_Ultraschallsensor.c: 104: TRISB = 0b00010000;
  1142  00FB66  0E10               	movlw	16
  1143  00FB68  6E93               	movwf	3987,c	;volatile
  1144                           
  1145                           ;2015-09-15_Labor_Ultraschallsensor.c: 105: TRISC = 0b10010001;
  1146  00FB6A  0E91               	movlw	145
  1147  00FB6C  6E94               	movwf	3988,c	;volatile
  1148                           
  1149                           ;2015-09-15_Labor_Ultraschallsensor.c: 106: TRISD = 0b01010000;
  1150  00FB6E  0E50               	movlw	80
  1151  00FB70  6E95               	movwf	3989,c	;volatile
  1152                           
  1153                           ;2015-09-15_Labor_Ultraschallsensor.c: 107: TRISE = 0b00000000;
  1154  00FB72  0E00               	movlw	0
  1155  00FB74  6E96               	movwf	3990,c	;volatile
  1156                           
  1157                           ;2015-09-15_Labor_Ultraschallsensor.c: 108: ANSELA = 0b00000000;
  1158  00FB76  0E00               	movlw	0
  1159  00FB78  010F               	movlb	15	; () banked
  1160  00FB7A  6F38               	movwf	56,b	;volatile
  1161                           
  1162                           ;2015-09-15_Labor_Ultraschallsensor.c: 109: ANSELB = 0b00000000;
  1163  00FB7C  0E00               	movlw	0
  1164  00FB7E  010F               	movlb	15	; () banked
  1165  00FB80  6F39               	movwf	57,b	;volatile
  1166                           
  1167                           ;2015-09-15_Labor_Ultraschallsensor.c: 110: ANSELC = 0b00000000;
  1168  00FB82  0E00               	movlw	0
  1169  00FB84  010F               	movlb	15	; () banked
  1170  00FB86  6F3A               	movwf	58,b	;volatile
  1171                           
  1172                           ;2015-09-15_Labor_Ultraschallsensor.c: 111: ANSELD = 0b00000000;
  1173  00FB88  0E00               	movlw	0
  1174  00FB8A  010F               	movlb	15	; () banked
  1175  00FB8C  6F3B               	movwf	59,b	;volatile
  1176                           
  1177                           ;2015-09-15_Labor_Ultraschallsensor.c: 112: ANSELE = 0b00000000;
  1178  00FB8E  0E00               	movlw	0
  1179  00FB90  010F               	movlb	15	; () banked
  1180  00FB92  6F3C               	movwf	60,b	;volatile
  1181                           
  1182                           ;2015-09-15_Labor_Ultraschallsensor.c: 113: OSCCON = 0b01110111;
  1183  00FB94  0E77               	movlw	119
  1184  00FB96  6ED3               	movwf	4051,c	;volatile
  1185                           
  1186                           ; BSR set to: 15
  1187                           ;2015-09-15_Labor_Ultraschallsensor.c: 119: T5GCONbits.TMR5GE = 1;
  1188  00FB98  010F               	movlb	15	; () banked
  1189  00FB9A  8F4D               	bsf	77,7,b	;volatile
  1190                           
  1191                           ; BSR set to: 15
  1192                           ;2015-09-15_Labor_Ultraschallsensor.c: 120: T5GCONbits.T5GSPM = 0;
  1193  00FB9C  010F               	movlb	15	; () banked
  1194  00FB9E  994D               	bcf	77,4,b	;volatile
  1195                           
  1196                           ; BSR set to: 15
  1197                           ;2015-09-15_Labor_Ultraschallsensor.c: 121: T5GCONbits.T5GTM = 0;
  1198  00FBA0  010F               	movlb	15	; () banked
  1199  00FBA2  9B4D               	bcf	77,5,b	;volatile
  1200                           
  1201                           ; BSR set to: 15
  1202                           ;2015-09-15_Labor_Ultraschallsensor.c: 122: T5GCONbits.T5GPOL = 1;
  1203  00FBA4  010F               	movlb	15	; () banked
  1204  00FBA6  8D4D               	bsf	77,6,b	;volatile
  1205                           
  1206                           ;2015-09-15_Labor_Ultraschallsensor.c: 123: T5GCONbits.T5GSS = 0b00;
  1207  00FBA8  0EFC               	movlw	-4
  1208  00FBAA  010F               	movlb	15	; () banked
  1209  00FBAC  174D               	andwf	77,f,b	;volatile
  1210                           
  1211                           ;2015-09-15_Labor_Ultraschallsensor.c: 125: T5CONbits.TMR5CS = 0b00;
  1212  00FBAE  0E3F               	movlw	-193
  1213  00FBB0  010F               	movlb	15	; () banked
  1214  00FBB2  174E               	andwf	78,f,b	;volatile
  1215                           
  1216                           ;2015-09-15_Labor_Ultraschallsensor.c: 126: T5CONbits.T5CKPS = 0b00;
  1217  00FBB4  0ECF               	movlw	-49
  1218  00FBB6  010F               	movlb	15	; () banked
  1219  00FBB8  174E               	andwf	78,f,b	;volatile
  1220                           
  1221                           ; BSR set to: 15
  1222                           ;2015-09-15_Labor_Ultraschallsensor.c: 127: T5CONbits.nT5SYNC = 1;
  1223  00FBBA  010F               	movlb	15	; () banked
  1224  00FBBC  854E               	bsf	78,2,b	;volatile
  1225                           
  1226                           ; BSR set to: 15
  1227                           ;2015-09-15_Labor_Ultraschallsensor.c: 128: T5CONbits.TMR5ON = 1;
  1228  00FBBE  010F               	movlb	15	; () banked
  1229  00FBC0  814E               	bsf	78,0,b	;volatile
  1230                           
  1231                           ; BSR set to: 15
  1232  00FBC2  0012               	return		;funcret
  1233  00FBC4                     __end_of_init:
  1234                           	opt stack 0
  1235  0000                     wreg	equ	0xFE8
  1236                           status	equ	0xFD8
  1237                           wreg	equ	0xFE8
  1238                           status	equ	0xFD8
  1239                           
  1240                           	psect	rparam
  1241  0000                     wreg	equ	0xFE8
  1242                           status	equ	0xFD8


Data Sizes:
    Strings     0
    Constant    0
    Data        0
    BSS         5
    Persistent  0
    Stack       0

Auto Spaces:
    Space          Size  Autos    Used
    COMRAM           95     47      52
    BANK0           160      0       0
    BANK1           256      0       0
    BANK2           256      0       0
    BANK3           256      0       0
    BANK4           256      0       0
    BANK5           256      0       0
    BANK6           256      0       0
    BANK7           256      0       0
    BANK8           256      0       0
    BANK9           256      0       0
    BANK10          256      0       0
    BANK11          256      0       0
    BANK12          256      0       0
    BANK13          256      0       0
    BANK14          256      0       0
    BANK15           56      0       0

Pointer List with Targets:

    None.

Critical Paths under _main in COMRAM

    _main->_measure
    _measure->___ftdiv
    ___lwtoft->___ftpack
    ___ftmul->___lwtoft
    ___ftdiv->___ftmul

Critical Paths under _main in BANK0

    None.

Critical Paths under _main in BANK1

    None.

Critical Paths under _main in BANK2

    None.

Critical Paths under _main in BANK3

    None.

Critical Paths under _main in BANK4

    None.

Critical Paths under _main in BANK5

    None.

Critical Paths under _main in BANK6

    None.

Critical Paths under _main in BANK7

    None.

Critical Paths under _main in BANK8

    None.

Critical Paths under _main in BANK9

    None.

Critical Paths under _main in BANK10

    None.

Critical Paths under _main in BANK11

    None.

Critical Paths under _main in BANK12

    None.

Critical Paths under _main in BANK13

    None.

Critical Paths under _main in BANK14

    None.

Critical Paths under _main in BANK15

    None.

Call Graph Tables:

 ---------------------------------------------------------------------------------
 (Depth) Function   	        Calls       Base Space   Used Autos Params    Refs
 ---------------------------------------------------------------------------------
 (0) _main                                                 5     0      5    7893
                                             42 COMRAM     5     0      5
                               _init
                            _measure
 ---------------------------------------------------------------------------------
 (1) _measure                                              1     1      0    7893
                                             41 COMRAM     1     1      0
                            ___ftdiv
                             ___ftge
                            ___ftmul
                           ___lwtoft
 ---------------------------------------------------------------------------------
 (2) ___lwtoft                                             3     0      3    2117
                                              8 COMRAM     3     0      3
                           ___ftpack
 ---------------------------------------------------------------------------------
 (2) ___ftmul                                             15     9      6    2587
                                             11 COMRAM    15     9      6
                           ___ftpack
                           ___lwtoft (ARG)
 ---------------------------------------------------------------------------------
 (2) ___ftge                                               9     3      6     648
                                              0 COMRAM     9     3      6
 ---------------------------------------------------------------------------------
 (2) ___ftdiv                                             15     9      6    2541
                                             26 COMRAM    15     9      6
                            ___ftmul (ARG)
                           ___ftpack
                           ___lwtoft (ARG)
 ---------------------------------------------------------------------------------
 (3) ___ftpack                                             8     3      5    2031
                                              0 COMRAM     8     3      5
 ---------------------------------------------------------------------------------
 (1) _init                                                 0     0      0       0
 ---------------------------------------------------------------------------------
 Estimated maximum stack depth 3
 ---------------------------------------------------------------------------------

 Call Graph Graphs:

 _main (ROOT)
   _init
   _measure
     ___ftdiv
       ___ftmul (ARG)
         ___ftpack
         ___lwtoft (ARG)
           ___ftpack
       ___ftpack (ARG)
       ___lwtoft (ARG)
         ___ftpack
     ___ftge
     ___ftmul
       ___ftpack
       ___lwtoft (ARG)
         ___ftpack
     ___lwtoft
       ___ftpack

 Address spaces:
Name               Size   Autos  Total    Cost      Usage
BIGRAM             F37      0       0      37        0.0%
EEDATA             400      0       0       0        0.0%
BITBANK14          100      0       0      33        0.0%
BANK14             100      0       0      34        0.0%
BITBANK13          100      0       0      31        0.0%
BANK13             100      0       0      32        0.0%
BITBANK12          100      0       0      29        0.0%
BANK12             100      0       0      30        0.0%
BITBANK11          100      0       0      27        0.0%
BANK11             100      0       0      28        0.0%
BITBANK10          100      0       0      25        0.0%
BANK10             100      0       0      26        0.0%
BITBANK9           100      0       0      23        0.0%
BANK9              100      0       0      24        0.0%
BITBANK8           100      0       0      21        0.0%
BANK8              100      0       0      22        0.0%
BITBANK7           100      0       0      19        0.0%
BANK7              100      0       0      20        0.0%
BITBANK6           100      0       0      17        0.0%
BANK6              100      0       0      18        0.0%
BITBANK5           100      0       0      15        0.0%
BANK5              100      0       0      16        0.0%
BITBANK4           100      0       0      13        0.0%
BANK4              100      0       0      14        0.0%
BITBANK3           100      0       0      10        0.0%
BANK3              100      0       0      11        0.0%
BITBANK2           100      0       0       8        0.0%
BANK2              100      0       0       9        0.0%
BITBANK1           100      0       0       6        0.0%
BANK1              100      0       0       7        0.0%
BITBANK0            A0      0       0       4        0.0%
BANK0               A0      0       0       5        0.0%
BITCOMRAM           5F      0       0       0        0.0%
COMRAM              5F     2F      34       1       54.7%
BITBANK15           38      0       0      35        0.0%
BANK15              38      0       0      36        0.0%
BITSFR_1             0      0       0      40        0.0%
SFR_1                0      0       0      40        0.0%
BITSFR               0      0       0      40        0.0%
SFR                  0      0       0      40        0.0%
STACK                0      0       0       2        0.0%
NULL                 0      0       0       0        0.0%
ABS                  0      0      34      12        0.0%
DATA                 0      0      34       3        0.0%
CODE                 0      0       0       0        0.0%


Microchip Technology PIC18 Macro Assembler V1.35 build -356382666 
Symbol Table                                                                                   Tue Jan 12 15:59:56 2016

                     l58 FEDE             __CFG_CP0$OFF 000000             __CFG_CP1$OFF 000000  
           __CFG_CP2$OFF 000000             __CFG_CP3$OFF 000000                      l355 FDB6  
                    l297 FCE2                      l920 FC9A                      l912 FC64  
                    l924 FCB0                      l916 FC72                      l926 FCCE  
                    l918 FC7C                      l950 FD2A                      l928 FCD8  
                    l956 FD52                      l976 FD90                      l996 FE10  
           __CFG_CPB$OFF 000000                      u411 FDF8                      u431 FE20  
                    u361 FD12             __CFG_CPD$OFF 000000                      u381 FD3A  
                    u557 FFF2                      wreg 000FE8             __CFG_LVP$OFF 000000  
           ___ftdiv@cntr 0024             ___ftdiv@sign 0029                     l1002 FE38  
                   l1020 FE7A                     l1030 FEA2                     l1016 FE6A  
                   l1042 FBF4                     l1026 FE92                     l1052 FC50  
                   l1046 FC24                     l1090 FFEA                     l1082 FF8C  
                   l1092 FFEC                     l1088 FFCC                     l1098 FB14  
                   _main FB10             ___ftpack@arg 0001                     _init FB4E  
           ___ftpack@exp 0004                     _time 0033            __CFG_BORV$190 000000  
                   start 0002            __CFG_IESO$OFF 000000             ___ftmul@cntr 0019  
           ___param_bank 000010             ___ftmul@sign 001A                    ?_main 002B  
                  ?_init 0001          __end_of___ftdiv FDE8          __end_of___ftmul FEDC  
         __CFG_DEBUG$OFF 000000                    _TMR5H 000F50                    _TMR5L 000F4F  
                  _PORTA 000F80                    _PORTB 000F81                    _PORTC 000F82  
                  _PORTD 000F83                    _PORTE 000F84                    _TRISA 000F92  
                  _TRISB 000F93                    _TRISC 000F94                    _TRISD 000F95  
                  _TRISE 000F96            __CFG_WRT0$OFF 000000            __CFG_WRT1$OFF 000000  
          __CFG_WRT2$OFF 000000            __CFG_WRT3$OFF 000000           __CFG_EBTR0$OFF 000000  
         __CFG_FCMEN$OFF 000000           __CFG_EBTR1$OFF 000000           __CFG_EBTR2$OFF 000000  
         __CFG_EBTR3$OFF 000000            __CFG_WRTB$OFF 000000            __CFG_WRTC$OFF 000000  
          __CFG_WRTD$OFF 000000           __CFG_EBTRB$OFF 000000          __end_of_measure 0000  
     __CFG_MCLRE$EXTMCLR 000000            ___ftpack@sign 0005                    status 000FD8  
         __CFG_HFOFST$ON 000000           __CFG_PBADEN$ON 000000          __initialization FB1A  
           __end_of_main FB1A             __end_of_init FBC4                   ??_main 0030  
                 ??_init 0001            __activetblptr 000000                   _ANSELA 000F38  
                 _ANSELB 000F39                   _ANSELC 000F3A                   _ANSELD 000F3B  
                 _ANSELE 000F3C         __end_of___ftpack FD02           __CFG_WDTEN$OFF 000000  
       __end_of___lwtoft FB4E                   _OSCCON 000FD3           __CFG_XINST$OFF 000000  
                 ___ftge FBC4           __CFG_STVREN$ON 000000                ??___ftdiv 0021  
              ??___ftmul 0012    ___ftmul@f3_as_product 0016                ??_measure 002A  
             __accesstop 0060  __end_of__initialization FB24               ___ftge@ff1 0001  
             ___ftge@ff2 0004            ___rparam_used 000001               ___ftdiv@f1 001B  
             ___ftdiv@f2 001E               ___ftdiv@f3 0025               ___ftmul@f1 000C  
             ___ftmul@f2 000F           __pcstackCOMRAM 0001               ___lwtoft@c 0009  
        __CFG_PLLCFG$OFF 000000       __CFG_CCP2MX$PORTC1 000000                  ?___ftge 0001  
     __CFG_CCP3MX$PORTB5 000000                ?___ftpack 0001                ?___lwtoft 0009  
      __CFG_PRICLKEN$OFF 000000                  _TMR5GIF 007D22          __CFG_PWRTEN$OFF 000000  
                __Hparam 0000                  __Lparam 0000          __size_of___ftge 0090  
                ___ftdiv FD02                  ___ftmul FDE8                  __pcinit FB1A  
             ??___ftpack 0006                  __ramtop 1000                  __ptext0 FB10  
                __ptext1 FEDC                  __ptext2 FB2A                  __ptext3 FDE8  
                __ptext4 FBC4                  __ptext5 FD02                  __ptext6 FC54  
                __ptext7 FB4E               ??___lwtoft 000C                  _measure FEDC  
              _T5CONbits 000F4E     end_of_initialization FB24                _PORTBbits 000F81  
            ___ftdiv@exp 0028              ___ftmul@exp 0015           __end_of___ftge FC54  
    start_initialization FB1A                 ??___ftge 0007        __size_of___ftpack 00AE  
            __pbssCOMRAM 0030        __size_of___lwtoft 0024                 ?___ftdiv 001B  
               ?___ftmul 000C                 ?_measure 0001         __CFG_WDTPS$32768 000000  
               __Hrparam 0000                 __Lrparam 0000       __CFG_BOREN$SBORDIS 000000  
      __CFG_P2BMX$PORTD2 000000         __size_of___ftdiv 00E6         __size_of___ftmul 00F4  
               ___ftpack FC54                 ___lwtoft FB2A         __size_of_measure 0124  
               _distance 0030            __size_of_main 000A            __size_of_init 0076  
             _T5GCONbits 000F4D                 main@argc 002B                 main@argv 002D  
      __CFG_T3CMX$PORTC0 000000        __CFG_FOSC$INTIO67 000000  
